<?xml version="1.0"?>
<pdml>
  <packet>
    <proto name="geninfo" pos="0" showname="General information" size="74">
      <field name="num" pos="0" show="16" showname="Number" value="10" size="74"/>
      <field name="len" pos="0" show="74" showname="Frame Length" value="4a" size="74"/>
      <field name="caplen" pos="0" show="74" showname="Captured Length" value="4a" size="74"/>
      <field name="timestamp" pos="0" show="Apr 20, 2012 09:11:07.455969000 CEST" showname="Captured Time" value="1334905867.455969000" size="74"/>
    </proto>
    <proto name="frame" showname="Frame 16: 74 bytes on wire (592 bits), 74 bytes captured (592 bits)" size="74" pos="0">
      <field name="frame.time" showname="Arrival Time: Apr 20, 2012 09:11:07.455969000 CEST" size="0" pos="0" show="Apr 20, 2012 09:11:07.455969000"/>
      <field name="frame.time_epoch" showname="Epoch Time: 1334905867.455969000 seconds" size="0" pos="0" show="1334905867.455969000"/>
      <field name="frame.time_delta" showname="Time delta from previous captured frame: 0.000218000 seconds" size="0" pos="0" show="0.000218000"/>
      <field name="frame.time_delta_displayed" showname="Time delta from previous displayed frame: 0.000218000 seconds" size="0" pos="0" show="0.000218000"/>
      <field name="frame.time_relative" showname="Time since reference or first frame: 0.001775000 seconds" size="0" pos="0" show="0.001775000"/>
      <field name="frame.number" showname="Frame Number: 16" size="0" pos="0" show="16"/>
      <field name="frame.len" showname="Frame Length: 74 bytes (592 bits)" size="0" pos="0" show="74"/>
      <field name="frame.cap_len" showname="Capture Length: 74 bytes (592 bits)" size="0" pos="0" show="74"/>
      <field name="frame.marked" showname="Frame is marked: False" size="0" pos="0" show="0"/>
      <field name="frame.ignored" showname="Frame is ignored: False" size="0" pos="0" show="0"/>
      <field name="frame.protocols" showname="Protocols in frame: eth:ip:tcp" size="0" pos="0" show="eth:ip:tcp"/>
    </proto>
    <proto name="eth" showname="Ethernet II, Src: 00:00:00_00:00:00 (00:00:00:00:00:00), Dst: 00:00:00_00:00:00 (00:00:00:00:00:00)" size="14" pos="0">
      <field name="eth.dst" showname="Destination: 00:00:00_00:00:00 (00:00:00:00:00:00)" size="6" pos="0" show="00:00:00:00:00:00" value="000000000000">
        <field name="eth.addr" showname="Address: 00:00:00_00:00:00 (00:00:00:00:00:00)" size="6" pos="0" show="00:00:00:00:00:00" value="000000000000"/>
        <field name="eth.ig" showname=".... ...0 .... .... .... .... = IG bit: Individual address (unicast)" size="3" pos="0" show="0" value="0" unmaskedvalue="000000"/>
        <field name="eth.lg" showname=".... ..0. .... .... .... .... = LG bit: Globally unique address (factory default)" size="3" pos="0" show="0" value="0" unmaskedvalue="000000"/>
      </field>
      <field name="eth.src" showname="Source: 00:00:00_00:00:00 (00:00:00:00:00:00)" size="6" pos="6" show="00:00:00:00:00:00" value="000000000000">
        <field name="eth.addr" showname="Address: 00:00:00_00:00:00 (00:00:00:00:00:00)" size="6" pos="6" show="00:00:00:00:00:00" value="000000000000"/>
        <field name="eth.ig" showname=".... ...0 .... .... .... .... = IG bit: Individual address (unicast)" size="3" pos="6" show="0" value="0" unmaskedvalue="000000"/>
        <field name="eth.lg" showname=".... ..0. .... .... .... .... = LG bit: Globally unique address (factory default)" size="3" pos="6" show="0" value="0" unmaskedvalue="000000"/>
      </field>
      <field name="eth.type" showname="Type: IP (0x0800)" size="2" pos="12" show="0x0800" value="0800"/>
    </proto>
    <proto name="ip" showname="Internet Protocol Version 4, Src: 127.0.0.1 (127.0.0.1), Dst: 127.0.0.1 (127.0.0.1)" size="20" pos="14">
      <field name="ip.version" showname="Version: 4" size="1" pos="14" show="4" value="45"/>
      <field name="ip.hdr_len" showname="Header length: 20 bytes" size="1" pos="14" show="20" value="45"/>
      <field name="ip.dsfield" showname="Differentiated Services Field: 0x00 (DSCP 0x00: Default; ECN: 0x00: Not-ECT (Not ECN-Capable Transport))" size="1" pos="15" show="0" value="00">
        <field name="ip.dsfield.dscp" showname="0000 00.. = Differentiated Services Codepoint: Default (0x00)" size="1" pos="15" show="0x00" value="0" unmaskedvalue="00"/>
        <field name="ip.dsfield.ecn" showname=".... ..00 = Explicit Congestion Notification: Not-ECT (Not ECN-Capable Transport) (0x00)" size="1" pos="15" show="0x00" value="0" unmaskedvalue="00"/>
      </field>
      <field name="ip.len" showname="Total Length: 60" size="2" pos="16" show="60" value="003c"/>
      <field name="ip.id" showname="Identification: 0x7f5c (32604)" size="2" pos="18" show="0x7f5c" value="7f5c"/>
      <field name="ip.flags" showname="Flags: 0x02 (Don't Fragment)" size="1" pos="20" show="0x02" value="40">
        <field name="ip.flags.rb" showname="0... .... = Reserved bit: Not set" size="1" pos="20" show="0" value="40"/>
        <field name="ip.flags.df" showname=".1.. .... = Don't fragment: Set" size="1" pos="20" show="1" value="40"/>
        <field name="ip.flags.mf" showname="..0. .... = More fragments: Not set" size="1" pos="20" show="0" value="40"/>
      </field>
      <field name="ip.frag_offset" showname="Fragment offset: 0" size="2" pos="20" show="0" value="4000"/>
      <field name="ip.ttl" showname="Time to live: 64" size="1" pos="22" show="64" value="40"/>
      <field name="ip.proto" showname="Protocol: TCP (6)" size="1" pos="23" show="6" value="06"/>
      <field name="ip.checksum" showname="Header checksum: 0xbd5d [correct]" size="2" pos="24" show="0xbd5d" value="bd5d">
        <field name="ip.checksum_good" showname="Good: True" size="2" pos="24" show="1" value="bd5d"/>
        <field name="ip.checksum_bad" showname="Bad: False" size="2" pos="24" show="0" value="bd5d"/>
      </field>
      <field name="ip.src" showname="Source: 127.0.0.1 (127.0.0.1)" size="4" pos="26" show="127.0.0.1" value="7f000001"/>
      <field name="ip.addr" showname="Source or Destination Address: 127.0.0.1 (127.0.0.1)" hide="yes" size="4" pos="26" show="127.0.0.1" value="7f000001"/>
      <field name="ip.src_host" showname="Source Host: 127.0.0.1" hide="yes" size="4" pos="26" show="127.0.0.1" value="7f000001"/>
      <field name="ip.host" showname="Source or Destination Host: 127.0.0.1" hide="yes" size="4" pos="26" show="127.0.0.1" value="7f000001"/>
      <field name="ip.dst" showname="Destination: 127.0.0.1 (127.0.0.1)" size="4" pos="30" show="127.0.0.1" value="7f000001"/>
      <field name="ip.addr" showname="Source or Destination Address: 127.0.0.1 (127.0.0.1)" hide="yes" size="4" pos="30" show="127.0.0.1" value="7f000001"/>
      <field name="ip.dst_host" showname="Destination Host: 127.0.0.1" hide="yes" size="4" pos="30" show="127.0.0.1" value="7f000001"/>
      <field name="ip.host" showname="Source or Destination Host: 127.0.0.1" hide="yes" size="4" pos="30" show="127.0.0.1" value="7f000001"/>
    </proto>
    <proto name="tcp" showname="Transmission Control Protocol, Src Port: 37097 (37097), Dst Port: http (80), Seq: 0, Len: 0" size="40" pos="34">
      <field name="tcp.srcport" showname="Source port: 37097 (37097)" size="2" pos="34" show="37097" value="90e9"/>
      <field name="tcp.dstport" showname="Destination port: http (80)" size="2" pos="36" show="80" value="0050"/>
      <field name="tcp.port" showname="Source or Destination Port: 37097" hide="yes" size="2" pos="34" show="37097" value="90e9"/>
      <field name="tcp.port" showname="Source or Destination Port: 80" hide="yes" size="2" pos="36" show="80" value="0050"/>
      <field name="tcp.stream" showname="Stream index: 5" size="0" pos="34" show="5"/>
      <field name="tcp.len" showname="TCP Segment Len: 0" hide="yes" size="1" pos="46" show="0" value="a0"/>
      <field name="tcp.seq" showname="Sequence number: 0    (relative sequence number)" size="4" pos="38" show="0" value="88715c02"/>
      <field name="tcp.hdr_len" showname="Header length: 40 bytes" size="1" pos="46" show="40" value="a0"/>
      <field name="tcp.flags" showname="Flags: 0x02 (SYN)" size="2" pos="46" show="0x02" value="a002">
        <field name="tcp.flags.res" showname="000. .... .... = Reserved: Not set" size="1" pos="46" show="0" value="0" unmaskedvalue="a0"/>
        <field name="tcp.flags.ns" showname="...0 .... .... = Nonce: Not set" size="1" pos="46" show="0" value="0" unmaskedvalue="a0"/>
        <field name="tcp.flags.cwr" showname=".... 0... .... = Congestion Window Reduced (CWR): Not set" size="1" pos="47" show="0" value="0" unmaskedvalue="02"/>
        <field name="tcp.flags.ecn" showname=".... .0.. .... = ECN-Echo: Not set" size="1" pos="47" show="0" value="0" unmaskedvalue="02"/>
        <field name="tcp.flags.urg" showname=".... ..0. .... = Urgent: Not set" size="1" pos="47" show="0" value="0" unmaskedvalue="02"/>
        <field name="tcp.flags.ack" showname=".... ...0 .... = Acknowledgement: Not set" size="1" pos="47" show="0" value="0" unmaskedvalue="02"/>
        <field name="tcp.flags.push" showname=".... .... 0... = Push: Not set" size="1" pos="47" show="0" value="0" unmaskedvalue="02"/>
        <field name="tcp.flags.reset" showname=".... .... .0.. = Reset: Not set" size="1" pos="47" show="0" value="0" unmaskedvalue="02"/>
        <field name="tcp.flags.syn" showname=".... .... ..1. = Syn: Set" size="1" pos="47" show="1" value="1" unmaskedvalue="02">
          <proto name="expert" showname="Expert Info (Chat/Sequence): Connection establish request (SYN): server port http" size="0" pos="0">
            <field name="expert.message" showname="Message: Connection establish request (SYN): server port http" size="0" pos="0" show="Connection establish request (SYN): server port http"/>
            <field name="expert.severity" showname="Severity level: Chat" size="0" pos="0" show="Chat"/>
            <field name="expert.group" showname="Group: Sequence" size="0" pos="0" show="Sequence"/>
          </proto>
        </field>
        <field name="tcp.flags.fin" showname=".... .... ...0 = Fin: Not set" size="1" pos="47" show="0" value="0" unmaskedvalue="02"/>
      </field>
      <field name="tcp.window_size_value" showname="Window size value: 32792" size="2" pos="48" show="32792" value="8018"/>
      <field name="tcp.window_size" showname="Calculated window size: 32792" size="2" pos="48" show="32792" value="8018"/>
      <field name="tcp.checksum" showname="Checksum: 0xfe30 [validation disabled]" size="2" pos="50" show="0xfe30" value="fe30">
        <field name="tcp.checksum_good" showname="Good Checksum: False" size="2" pos="50" show="0" value="fe30"/>
        <field name="tcp.checksum_bad" showname="Bad Checksum: False" size="2" pos="50" show="0" value="fe30"/>
      </field>
      <field name="tcp.options" showname="Options: (20 bytes)" size="20" pos="54" show="02:04:40:0c:04:02:08:0a:00:14:23:5e:00:00:00:00:01:03:03:07" value="0204400c0402080a0014235e0000000001030307">
        <field name="tcp.options.mss" showname="TCP MSS Option: True" hide="yes" size="4" pos="54" show="1" value="0204400c"/>
        <field name="tcp.options.mss_val" showname="Maximum segment size: 16396 bytes" size="4" pos="54" show="16396" value="0204400c"/>
        <field name="tcp.options.sack_perm" showname="TCP SACK Permitted Option: True" size="2" pos="58" show="1" value="0402"/>
        <field name="" show="Timestamps: TSval 1319774, TSecr 0" size="10" pos="60" value="080a0014235e00000000">
          <field name="tcp.option_kind" showname="Kind: Timestamp (8)" size="1" pos="60" show="8" value="08"/>
          <field name="tcp.option_len" showname="Length: 10" size="1" pos="61" show="10" value="0a"/>
          <field name="tcp.options.timestamp.tsval" showname="Timestamp value: 1319774" size="4" pos="62" show="1319774" value="0014235e"/>
          <field name="tcp.options.timestamp.tsecr" showname="Timestamp echo reply: 0" size="4" pos="66" show="0" value="00000000"/>
        </field>
        <field name="" show="No-Operation (NOP)" size="1" pos="70" value="01"/>
        <field name="" show="Window scale: 7 (multiply by 128)" size="3" pos="71" value="030307">
          <field name="tcp.option_kind" showname="Kind: Window Scale (3)" size="1" pos="71" show="3" value="03"/>
          <field name="tcp.option_len" showname="Length: 3" size="1" pos="72" show="3" value="03"/>
          <field name="tcp.options.wscale.shift" showname="Shift count: 7" size="1" pos="73" show="7" value="07"/>
          <field name="tcp.options.wscale.multiplier" showname="Multiplier: 128" size="1" pos="73" show="128" value="07"/>
        </field>
      </field>
    </proto>
  </packet>
  <packet>
    <proto name="geninfo" pos="0" showname="General information" size="74">
      <field name="num" pos="0" show="17" showname="Number" value="11" size="74"/>
      <field name="len" pos="0" show="74" showname="Frame Length" value="4a" size="74"/>
      <field name="caplen" pos="0" show="74" showname="Captured Length" value="4a" size="74"/>
      <field name="timestamp" pos="0" show="Apr 20, 2012 09:11:07.455989000 CEST" showname="Captured Time" value="1334905867.455989000" size="74"/>
    </proto>
    <proto name="frame" showname="Frame 17: 74 bytes on wire (592 bits), 74 bytes captured (592 bits)" size="74" pos="0">
      <field name="frame.time" showname="Arrival Time: Apr 20, 2012 09:11:07.455989000 CEST" size="0" pos="0" show="Apr 20, 2012 09:11:07.455989000"/>
      <field name="frame.time_epoch" showname="Epoch Time: 1334905867.455989000 seconds" size="0" pos="0" show="1334905867.455989000"/>
      <field name="frame.time_delta" showname="Time delta from previous captured frame: 0.000020000 seconds" size="0" pos="0" show="0.000020000"/>
      <field name="frame.time_delta_displayed" showname="Time delta from previous displayed frame: 0.000020000 seconds" size="0" pos="0" show="0.000020000"/>
      <field name="frame.time_relative" showname="Time since reference or first frame: 0.001795000 seconds" size="0" pos="0" show="0.001795000"/>
      <field name="frame.number" showname="Frame Number: 17" size="0" pos="0" show="17"/>
      <field name="frame.len" showname="Frame Length: 74 bytes (592 bits)" size="0" pos="0" show="74"/>
      <field name="frame.cap_len" showname="Capture Length: 74 bytes (592 bits)" size="0" pos="0" show="74"/>
      <field name="frame.marked" showname="Frame is marked: False" size="0" pos="0" show="0"/>
      <field name="frame.ignored" showname="Frame is ignored: False" size="0" pos="0" show="0"/>
      <field name="frame.protocols" showname="Protocols in frame: eth:ip:tcp" size="0" pos="0" show="eth:ip:tcp"/>
    </proto>
    <proto name="eth" showname="Ethernet II, Src: 00:00:00_00:00:00 (00:00:00:00:00:00), Dst: 00:00:00_00:00:00 (00:00:00:00:00:00)" size="14" pos="0">
      <field name="eth.dst" showname="Destination: 00:00:00_00:00:00 (00:00:00:00:00:00)" size="6" pos="0" show="00:00:00:00:00:00" value="000000000000">
        <field name="eth.addr" showname="Address: 00:00:00_00:00:00 (00:00:00:00:00:00)" size="6" pos="0" show="00:00:00:00:00:00" value="000000000000"/>
        <field name="eth.ig" showname=".... ...0 .... .... .... .... = IG bit: Individual address (unicast)" size="3" pos="0" show="0" value="0" unmaskedvalue="000000"/>
        <field name="eth.lg" showname=".... ..0. .... .... .... .... = LG bit: Globally unique address (factory default)" size="3" pos="0" show="0" value="0" unmaskedvalue="000000"/>
      </field>
      <field name="eth.src" showname="Source: 00:00:00_00:00:00 (00:00:00:00:00:00)" size="6" pos="6" show="00:00:00:00:00:00" value="000000000000">
        <field name="eth.addr" showname="Address: 00:00:00_00:00:00 (00:00:00:00:00:00)" size="6" pos="6" show="00:00:00:00:00:00" value="000000000000"/>
        <field name="eth.ig" showname=".... ...0 .... .... .... .... = IG bit: Individual address (unicast)" size="3" pos="6" show="0" value="0" unmaskedvalue="000000"/>
        <field name="eth.lg" showname=".... ..0. .... .... .... .... = LG bit: Globally unique address (factory default)" size="3" pos="6" show="0" value="0" unmaskedvalue="000000"/>
      </field>
      <field name="eth.type" showname="Type: IP (0x0800)" size="2" pos="12" show="0x0800" value="0800"/>
    </proto>
    <proto name="ip" showname="Internet Protocol Version 4, Src: 127.0.0.1 (127.0.0.1), Dst: 127.0.0.1 (127.0.0.1)" size="20" pos="14">
      <field name="ip.version" showname="Version: 4" size="1" pos="14" show="4" value="45"/>
      <field name="ip.hdr_len" showname="Header length: 20 bytes" size="1" pos="14" show="20" value="45"/>
      <field name="ip.dsfield" showname="Differentiated Services Field: 0x00 (DSCP 0x00: Default; ECN: 0x00: Not-ECT (Not ECN-Capable Transport))" size="1" pos="15" show="0" value="00">
        <field name="ip.dsfield.dscp" showname="0000 00.. = Differentiated Services Codepoint: Default (0x00)" size="1" pos="15" show="0x00" value="0" unmaskedvalue="00"/>
        <field name="ip.dsfield.ecn" showname=".... ..00 = Explicit Congestion Notification: Not-ECT (Not ECN-Capable Transport) (0x00)" size="1" pos="15" show="0x00" value="0" unmaskedvalue="00"/>
      </field>
      <field name="ip.len" showname="Total Length: 60" size="2" pos="16" show="60" value="003c"/>
      <field name="ip.id" showname="Identification: 0x0000 (0)" size="2" pos="18" show="0x0000" value="0000"/>
      <field name="ip.flags" showname="Flags: 0x02 (Don't Fragment)" size="1" pos="20" show="0x02" value="40">
        <field name="ip.flags.rb" showname="0... .... = Reserved bit: Not set" size="1" pos="20" show="0" value="40"/>
        <field name="ip.flags.df" showname=".1.. .... = Don't fragment: Set" size="1" pos="20" show="1" value="40"/>
        <field name="ip.flags.mf" showname="..0. .... = More fragments: Not set" size="1" pos="20" show="0" value="40"/>
      </field>
      <field name="ip.frag_offset" showname="Fragment offset: 0" size="2" pos="20" show="0" value="4000"/>
      <field name="ip.ttl" showname="Time to live: 64" size="1" pos="22" show="64" value="40"/>
      <field name="ip.proto" showname="Protocol: TCP (6)" size="1" pos="23" show="6" value="06"/>
      <field name="ip.checksum" showname="Header checksum: 0x3cba [correct]" size="2" pos="24" show="0x3cba" value="3cba">
        <field name="ip.checksum_good" showname="Good: True" size="2" pos="24" show="1" value="3cba"/>
        <field name="ip.checksum_bad" showname="Bad: False" size="2" pos="24" show="0" value="3cba"/>
      </field>
      <field name="ip.src" showname="Source: 127.0.0.1 (127.0.0.1)" size="4" pos="26" show="127.0.0.1" value="7f000001"/>
      <field name="ip.addr" showname="Source or Destination Address: 127.0.0.1 (127.0.0.1)" hide="yes" size="4" pos="26" show="127.0.0.1" value="7f000001"/>
      <field name="ip.src_host" showname="Source Host: 127.0.0.1" hide="yes" size="4" pos="26" show="127.0.0.1" value="7f000001"/>
      <field name="ip.host" showname="Source or Destination Host: 127.0.0.1" hide="yes" size="4" pos="26" show="127.0.0.1" value="7f000001"/>
      <field name="ip.dst" showname="Destination: 127.0.0.1 (127.0.0.1)" size="4" pos="30" show="127.0.0.1" value="7f000001"/>
      <field name="ip.addr" showname="Source or Destination Address: 127.0.0.1 (127.0.0.1)" hide="yes" size="4" pos="30" show="127.0.0.1" value="7f000001"/>
      <field name="ip.dst_host" showname="Destination Host: 127.0.0.1" hide="yes" size="4" pos="30" show="127.0.0.1" value="7f000001"/>
      <field name="ip.host" showname="Source or Destination Host: 127.0.0.1" hide="yes" size="4" pos="30" show="127.0.0.1" value="7f000001"/>
    </proto>
    <proto name="tcp" showname="Transmission Control Protocol, Src Port: http (80), Dst Port: 37097 (37097), Seq: 0, Ack: 1, Len: 0" size="40" pos="34">
      <field name="tcp.srcport" showname="Source port: http (80)" size="2" pos="34" show="80" value="0050"/>
      <field name="tcp.dstport" showname="Destination port: 37097 (37097)" size="2" pos="36" show="37097" value="90e9"/>
      <field name="tcp.port" showname="Source or Destination Port: 80" hide="yes" size="2" pos="34" show="80" value="0050"/>
      <field name="tcp.port" showname="Source or Destination Port: 37097" hide="yes" size="2" pos="36" show="37097" value="90e9"/>
      <field name="tcp.stream" showname="Stream index: 5" size="0" pos="34" show="5"/>
      <field name="tcp.len" showname="TCP Segment Len: 0" hide="yes" size="1" pos="46" show="0" value="a0"/>
      <field name="tcp.seq" showname="Sequence number: 0    (relative sequence number)" size="4" pos="38" show="0" value="0e2c8319"/>
      <field name="tcp.ack" showname="Acknowledgement number: 1    (relative ack number)" size="4" pos="42" show="1" value="88715c03"/>
      <field name="tcp.hdr_len" showname="Header length: 40 bytes" size="1" pos="46" show="40" value="a0"/>
      <field name="tcp.flags" showname="Flags: 0x12 (SYN, ACK)" size="2" pos="46" show="0x12" value="a012">
        <field name="tcp.flags.res" showname="000. .... .... = Reserved: Not set" size="1" pos="46" show="0" value="0" unmaskedvalue="a0"/>
        <field name="tcp.flags.ns" showname="...0 .... .... = Nonce: Not set" size="1" pos="46" show="0" value="0" unmaskedvalue="a0"/>
        <field name="tcp.flags.cwr" showname=".... 0... .... = Congestion Window Reduced (CWR): Not set" size="1" pos="47" show="0" value="0" unmaskedvalue="12"/>
        <field name="tcp.flags.ecn" showname=".... .0.. .... = ECN-Echo: Not set" size="1" pos="47" show="0" value="0" unmaskedvalue="12"/>
        <field name="tcp.flags.urg" showname=".... ..0. .... = Urgent: Not set" size="1" pos="47" show="0" value="0" unmaskedvalue="12"/>
        <field name="tcp.flags.ack" showname=".... ...1 .... = Acknowledgement: Set" size="1" pos="47" show="1" value="1" unmaskedvalue="12"/>
        <field name="tcp.flags.push" showname=".... .... 0... = Push: Not set" size="1" pos="47" show="0" value="0" unmaskedvalue="12"/>
        <field name="tcp.flags.reset" showname=".... .... .0.. = Reset: Not set" size="1" pos="47" show="0" value="0" unmaskedvalue="12"/>
        <field name="tcp.flags.syn" showname=".... .... ..1. = Syn: Set" size="1" pos="47" show="1" value="1" unmaskedvalue="12">
          <proto name="expert" showname="Expert Info (Chat/Sequence): Connection establish acknowledge (SYN+ACK): server port http" size="0" pos="0">
            <field name="expert.message" showname="Message: Connection establish acknowledge (SYN+ACK): server port http" size="0" pos="0" show="Connection establish acknowledge (SYN+ACK): server port http"/>
            <field name="expert.severity" showname="Severity level: Chat" size="0" pos="0" show="Chat"/>
            <field name="expert.group" showname="Group: Sequence" size="0" pos="0" show="Sequence"/>
          </proto>
        </field>
        <field name="tcp.flags.fin" showname=".... .... ...0 = Fin: Not set" size="1" pos="47" show="0" value="0" unmaskedvalue="12"/>
      </field>
      <field name="tcp.window_size_value" showname="Window size value: 32768" size="2" pos="48" show="32768" value="8000"/>
      <field name="tcp.window_size" showname="Calculated window size: 32768" size="2" pos="48" show="32768" value="8000"/>
      <field name="tcp.checksum" showname="Checksum: 0xfe30 [validation disabled]" size="2" pos="50" show="0xfe30" value="fe30">
        <field name="tcp.checksum_good" showname="Good Checksum: False" size="2" pos="50" show="0" value="fe30"/>
        <field name="tcp.checksum_bad" showname="Bad Checksum: False" size="2" pos="50" show="0" value="fe30"/>
      </field>
      <field name="tcp.options" showname="Options: (20 bytes)" size="20" pos="54" show="02:04:40:0c:04:02:08:0a:00:14:23:5e:00:14:23:5e:01:03:03:07" value="0204400c0402080a0014235e0014235e01030307">
        <field name="tcp.options.mss" showname="TCP MSS Option: True" hide="yes" size="4" pos="54" show="1" value="0204400c"/>
        <field name="tcp.options.mss_val" showname="Maximum segment size: 16396 bytes" size="4" pos="54" show="16396" value="0204400c"/>
        <field name="tcp.options.sack_perm" showname="TCP SACK Permitted Option: True" size="2" pos="58" show="1" value="0402"/>
        <field name="" show="Timestamps: TSval 1319774, TSecr 1319774" size="10" pos="60" value="080a0014235e0014235e">
          <field name="tcp.option_kind" showname="Kind: Timestamp (8)" size="1" pos="60" show="8" value="08"/>
          <field name="tcp.option_len" showname="Length: 10" size="1" pos="61" show="10" value="0a"/>
          <field name="tcp.options.timestamp.tsval" showname="Timestamp value: 1319774" size="4" pos="62" show="1319774" value="0014235e"/>
          <field name="tcp.options.timestamp.tsecr" showname="Timestamp echo reply: 1319774" size="4" pos="66" show="1319774" value="0014235e"/>
        </field>
        <field name="" show="No-Operation (NOP)" size="1" pos="70" value="01"/>
        <field name="" show="Window scale: 7 (multiply by 128)" size="3" pos="71" value="030307">
          <field name="tcp.option_kind" showname="Kind: Window Scale (3)" size="1" pos="71" show="3" value="03"/>
          <field name="tcp.option_len" showname="Length: 3" size="1" pos="72" show="3" value="03"/>
          <field name="tcp.options.wscale.shift" showname="Shift count: 7" size="1" pos="73" show="7" value="07"/>
          <field name="tcp.options.wscale.multiplier" showname="Multiplier: 128" size="1" pos="73" show="128" value="07"/>
        </field>
      </field>
      <field name="" show="SEQ/ACK analysis" size="0" pos="34" value="">
        <field name="tcp.analysis.acks_frame" showname="This is an ACK to the segment in frame: 16" size="0" pos="34" show="16"/>
        <field name="tcp.analysis.ack_rtt" showname="The RTT to ACK the segment was: 0.000020000 seconds" size="0" pos="34" show="0.000020000"/>
      </field>
    </proto>
  </packet>
  <packet>
    <proto name="geninfo" pos="0" showname="General information" size="66">
      <field name="num" pos="0" show="18" showname="Number" value="12" size="66"/>
      <field name="len" pos="0" show="66" showname="Frame Length" value="42" size="66"/>
      <field name="caplen" pos="0" show="66" showname="Captured Length" value="42" size="66"/>
      <field name="timestamp" pos="0" show="Apr 20, 2012 09:11:07.456002000 CEST" showname="Captured Time" value="1334905867.456002000" size="66"/>
    </proto>
    <proto name="frame" showname="Frame 18: 66 bytes on wire (528 bits), 66 bytes captured (528 bits)" size="66" pos="0">
      <field name="frame.time" showname="Arrival Time: Apr 20, 2012 09:11:07.456002000 CEST" size="0" pos="0" show="Apr 20, 2012 09:11:07.456002000"/>
      <field name="frame.time_epoch" showname="Epoch Time: 1334905867.456002000 seconds" size="0" pos="0" show="1334905867.456002000"/>
      <field name="frame.time_delta" showname="Time delta from previous captured frame: 0.000013000 seconds" size="0" pos="0" show="0.000013000"/>
      <field name="frame.time_delta_displayed" showname="Time delta from previous displayed frame: 0.000013000 seconds" size="0" pos="0" show="0.000013000"/>
      <field name="frame.time_relative" showname="Time since reference or first frame: 0.001808000 seconds" size="0" pos="0" show="0.001808000"/>
      <field name="frame.number" showname="Frame Number: 18" size="0" pos="0" show="18"/>
      <field name="frame.len" showname="Frame Length: 66 bytes (528 bits)" size="0" pos="0" show="66"/>
      <field name="frame.cap_len" showname="Capture Length: 66 bytes (528 bits)" size="0" pos="0" show="66"/>
      <field name="frame.marked" showname="Frame is marked: False" size="0" pos="0" show="0"/>
      <field name="frame.ignored" showname="Frame is ignored: False" size="0" pos="0" show="0"/>
      <field name="frame.protocols" showname="Protocols in frame: eth:ip:tcp" size="0" pos="0" show="eth:ip:tcp"/>
    </proto>
    <proto name="eth" showname="Ethernet II, Src: 00:00:00_00:00:00 (00:00:00:00:00:00), Dst: 00:00:00_00:00:00 (00:00:00:00:00:00)" size="14" pos="0">
      <field name="eth.dst" showname="Destination: 00:00:00_00:00:00 (00:00:00:00:00:00)" size="6" pos="0" show="00:00:00:00:00:00" value="000000000000">
        <field name="eth.addr" showname="Address: 00:00:00_00:00:00 (00:00:00:00:00:00)" size="6" pos="0" show="00:00:00:00:00:00" value="000000000000"/>
        <field name="eth.ig" showname=".... ...0 .... .... .... .... = IG bit: Individual address (unicast)" size="3" pos="0" show="0" value="0" unmaskedvalue="000000"/>
        <field name="eth.lg" showname=".... ..0. .... .... .... .... = LG bit: Globally unique address (factory default)" size="3" pos="0" show="0" value="0" unmaskedvalue="000000"/>
      </field>
      <field name="eth.src" showname="Source: 00:00:00_00:00:00 (00:00:00:00:00:00)" size="6" pos="6" show="00:00:00:00:00:00" value="000000000000">
        <field name="eth.addr" showname="Address: 00:00:00_00:00:00 (00:00:00:00:00:00)" size="6" pos="6" show="00:00:00:00:00:00" value="000000000000"/>
        <field name="eth.ig" showname=".... ...0 .... .... .... .... = IG bit: Individual address (unicast)" size="3" pos="6" show="0" value="0" unmaskedvalue="000000"/>
        <field name="eth.lg" showname=".... ..0. .... .... .... .... = LG bit: Globally unique address (factory default)" size="3" pos="6" show="0" value="0" unmaskedvalue="000000"/>
      </field>
      <field name="eth.type" showname="Type: IP (0x0800)" size="2" pos="12" show="0x0800" value="0800"/>
    </proto>
    <proto name="ip" showname="Internet Protocol Version 4, Src: 127.0.0.1 (127.0.0.1), Dst: 127.0.0.1 (127.0.0.1)" size="20" pos="14">
      <field name="ip.version" showname="Version: 4" size="1" pos="14" show="4" value="45"/>
      <field name="ip.hdr_len" showname="Header length: 20 bytes" size="1" pos="14" show="20" value="45"/>
      <field name="ip.dsfield" showname="Differentiated Services Field: 0x00 (DSCP 0x00: Default; ECN: 0x00: Not-ECT (Not ECN-Capable Transport))" size="1" pos="15" show="0" value="00">
        <field name="ip.dsfield.dscp" showname="0000 00.. = Differentiated Services Codepoint: Default (0x00)" size="1" pos="15" show="0x00" value="0" unmaskedvalue="00"/>
        <field name="ip.dsfield.ecn" showname=".... ..00 = Explicit Congestion Notification: Not-ECT (Not ECN-Capable Transport) (0x00)" size="1" pos="15" show="0x00" value="0" unmaskedvalue="00"/>
      </field>
      <field name="ip.len" showname="Total Length: 52" size="2" pos="16" show="52" value="0034"/>
      <field name="ip.id" showname="Identification: 0x7f5d (32605)" size="2" pos="18" show="0x7f5d" value="7f5d"/>
      <field name="ip.flags" showname="Flags: 0x02 (Don't Fragment)" size="1" pos="20" show="0x02" value="40">
        <field name="ip.flags.rb" showname="0... .... = Reserved bit: Not set" size="1" pos="20" show="0" value="40"/>
        <field name="ip.flags.df" showname=".1.. .... = Don't fragment: Set" size="1" pos="20" show="1" value="40"/>
        <field name="ip.flags.mf" showname="..0. .... = More fragments: Not set" size="1" pos="20" show="0" value="40"/>
      </field>
      <field name="ip.frag_offset" showname="Fragment offset: 0" size="2" pos="20" show="0" value="4000"/>
      <field name="ip.ttl" showname="Time to live: 64" size="1" pos="22" show="64" value="40"/>
      <field name="ip.proto" showname="Protocol: TCP (6)" size="1" pos="23" show="6" value="06"/>
      <field name="ip.checksum" showname="Header checksum: 0xbd64 [correct]" size="2" pos="24" show="0xbd64" value="bd64">
        <field name="ip.checksum_good" showname="Good: True" size="2" pos="24" show="1" value="bd64"/>
        <field name="ip.checksum_bad" showname="Bad: False" size="2" pos="24" show="0" value="bd64"/>
      </field>
      <field name="ip.src" showname="Source: 127.0.0.1 (127.0.0.1)" size="4" pos="26" show="127.0.0.1" value="7f000001"/>
      <field name="ip.addr" showname="Source or Destination Address: 127.0.0.1 (127.0.0.1)" hide="yes" size="4" pos="26" show="127.0.0.1" value="7f000001"/>
      <field name="ip.src_host" showname="Source Host: 127.0.0.1" hide="yes" size="4" pos="26" show="127.0.0.1" value="7f000001"/>
      <field name="ip.host" showname="Source or Destination Host: 127.0.0.1" hide="yes" size="4" pos="26" show="127.0.0.1" value="7f000001"/>
      <field name="ip.dst" showname="Destination: 127.0.0.1 (127.0.0.1)" size="4" pos="30" show="127.0.0.1" value="7f000001"/>
      <field name="ip.addr" showname="Source or Destination Address: 127.0.0.1 (127.0.0.1)" hide="yes" size="4" pos="30" show="127.0.0.1" value="7f000001"/>
      <field name="ip.dst_host" showname="Destination Host: 127.0.0.1" hide="yes" size="4" pos="30" show="127.0.0.1" value="7f000001"/>
      <field name="ip.host" showname="Source or Destination Host: 127.0.0.1" hide="yes" size="4" pos="30" show="127.0.0.1" value="7f000001"/>
    </proto>
    <proto name="tcp" showname="Transmission Control Protocol, Src Port: 37097 (37097), Dst Port: http (80), Seq: 1, Ack: 1, Len: 0" size="32" pos="34">
      <field name="tcp.srcport" showname="Source port: 37097 (37097)" size="2" pos="34" show="37097" value="90e9"/>
      <field name="tcp.dstport" showname="Destination port: http (80)" size="2" pos="36" show="80" value="0050"/>
      <field name="tcp.port" showname="Source or Destination Port: 37097" hide="yes" size="2" pos="34" show="37097" value="90e9"/>
      <field name="tcp.port" showname="Source or Destination Port: 80" hide="yes" size="2" pos="36" show="80" value="0050"/>
      <field name="tcp.stream" showname="Stream index: 5" size="0" pos="34" show="5"/>
      <field name="tcp.len" showname="TCP Segment Len: 0" hide="yes" size="1" pos="46" show="0" value="80"/>
      <field name="tcp.seq" showname="Sequence number: 1    (relative sequence number)" size="4" pos="38" show="1" value="88715c03"/>
      <field name="tcp.ack" showname="Acknowledgement number: 1    (relative ack number)" size="4" pos="42" show="1" value="0e2c831a"/>
      <field name="tcp.hdr_len" showname="Header length: 32 bytes" size="1" pos="46" show="32" value="80"/>
      <field name="tcp.flags" showname="Flags: 0x10 (ACK)" size="2" pos="46" show="0x10" value="8010">
        <field name="tcp.flags.res" showname="000. .... .... = Reserved: Not set" size="1" pos="46" show="0" value="0" unmaskedvalue="80"/>
        <field name="tcp.flags.ns" showname="...0 .... .... = Nonce: Not set" size="1" pos="46" show="0" value="0" unmaskedvalue="80"/>
        <field name="tcp.flags.cwr" showname=".... 0... .... = Congestion Window Reduced (CWR): Not set" size="1" pos="47" show="0" value="0" unmaskedvalue="10"/>
        <field name="tcp.flags.ecn" showname=".... .0.. .... = ECN-Echo: Not set" size="1" pos="47" show="0" value="0" unmaskedvalue="10"/>
        <field name="tcp.flags.urg" showname=".... ..0. .... = Urgent: Not set" size="1" pos="47" show="0" value="0" unmaskedvalue="10"/>
        <field name="tcp.flags.ack" showname=".... ...1 .... = Acknowledgement: Set" size="1" pos="47" show="1" value="1" unmaskedvalue="10"/>
        <field name="tcp.flags.push" showname=".... .... 0... = Push: Not set" size="1" pos="47" show="0" value="0" unmaskedvalue="10"/>
        <field name="tcp.flags.reset" showname=".... .... .0.. = Reset: Not set" size="1" pos="47" show="0" value="0" unmaskedvalue="10"/>
        <field name="tcp.flags.syn" showname=".... .... ..0. = Syn: Not set" size="1" pos="47" show="0" value="0" unmaskedvalue="10"/>
        <field name="tcp.flags.fin" showname=".... .... ...0 = Fin: Not set" size="1" pos="47" show="0" value="0" unmaskedvalue="10"/>
      </field>
      <field name="tcp.window_size_value" showname="Window size value: 257" size="2" pos="48" show="257" value="0101"/>
      <field name="tcp.window_size" showname="Calculated window size: 32896" size="2" pos="48" show="32896" value="0101"/>
      <field name="tcp.window_size_scalefactor" showname="Window size scaling factor: 128" size="2" pos="48" show="128" value="0101"/>
      <field name="tcp.checksum" showname="Checksum: 0xfe28 [validation disabled]" size="2" pos="50" show="0xfe28" value="fe28">
        <field name="tcp.checksum_good" showname="Good Checksum: False" size="2" pos="50" show="0" value="fe28"/>
        <field name="tcp.checksum_bad" showname="Bad Checksum: False" size="2" pos="50" show="0" value="fe28"/>
      </field>
      <field name="tcp.options" showname="Options: (12 bytes)" size="12" pos="54" show="01:01:08:0a:00:14:23:5e:00:14:23:5e" value="0101080a0014235e0014235e">
        <field name="" show="No-Operation (NOP)" size="1" pos="54" value="01"/>
        <field name="" show="No-Operation (NOP)" size="1" pos="55" value="01"/>
        <field name="" show="Timestamps: TSval 1319774, TSecr 1319774" size="10" pos="56" value="080a0014235e0014235e">
          <field name="tcp.option_kind" showname="Kind: Timestamp (8)" size="1" pos="56" show="8" value="08"/>
          <field name="tcp.option_len" showname="Length: 10" size="1" pos="57" show="10" value="0a"/>
          <field name="tcp.options.timestamp.tsval" showname="Timestamp value: 1319774" size="4" pos="58" show="1319774" value="0014235e"/>
          <field name="tcp.options.timestamp.tsecr" showname="Timestamp echo reply: 1319774" size="4" pos="62" show="1319774" value="0014235e"/>
        </field>
      </field>
      <field name="" show="SEQ/ACK analysis" size="0" pos="34" value="">
        <field name="tcp.analysis.acks_frame" showname="This is an ACK to the segment in frame: 17" size="0" pos="34" show="17"/>
        <field name="tcp.analysis.ack_rtt" showname="The RTT to ACK the segment was: 0.000013000 seconds" size="0" pos="34" show="0.000013000"/>
      </field>
    </proto>
  </packet>
  <packet>
    <proto name="geninfo" pos="0" showname="General information" size="552">
      <field name="num" pos="0" show="51" showname="Number" value="33" size="552"/>
      <field name="len" pos="0" show="552" showname="Frame Length" value="228" size="552"/>
      <field name="caplen" pos="0" show="552" showname="Captured Length" value="228" size="552"/>
      <field name="timestamp" pos="0" show="Apr 20, 2012 09:11:07.544006000 CEST" showname="Captured Time" value="1334905867.544006000" size="552"/>
    </proto>
    <proto name="frame" showname="Frame 51: 552 bytes on wire (4416 bits), 552 bytes captured (4416 bits)" size="552" pos="0">
      <field name="frame.time" showname="Arrival Time: Apr 20, 2012 09:11:07.544006000 CEST" size="0" pos="0" show="Apr 20, 2012 09:11:07.544006000"/>
      <field name="frame.time_epoch" showname="Epoch Time: 1334905867.544006000 seconds" size="0" pos="0" show="1334905867.544006000"/>
      <field name="frame.time_delta" showname="Time delta from previous captured frame: 0.000801000 seconds" size="0" pos="0" show="0.000801000"/>
      <field name="frame.time_delta_displayed" showname="Time delta from previous displayed frame: 0.000801000 seconds" size="0" pos="0" show="0.000801000"/>
      <field name="frame.time_relative" showname="Time since reference or first frame: 0.089812000 seconds" size="0" pos="0" show="0.089812000"/>
      <field name="frame.number" showname="Frame Number: 51" size="0" pos="0" show="51"/>
      <field name="frame.len" showname="Frame Length: 552 bytes (4416 bits)" size="0" pos="0" show="552"/>
      <field name="frame.cap_len" showname="Capture Length: 552 bytes (4416 bits)" size="0" pos="0" show="552"/>
      <field name="frame.marked" showname="Frame is marked: False" size="0" pos="0" show="0"/>
      <field name="frame.ignored" showname="Frame is ignored: False" size="0" pos="0" show="0"/>
      <field name="frame.protocols" showname="Protocols in frame: eth:ip:tcp:http" size="0" pos="0" show="eth:ip:tcp:http"/>
    </proto>
    <proto name="eth" showname="Ethernet II, Src: 00:00:00_00:00:00 (00:00:00:00:00:00), Dst: 00:00:00_00:00:00 (00:00:00:00:00:00)" size="14" pos="0">
      <field name="eth.dst" showname="Destination: 00:00:00_00:00:00 (00:00:00:00:00:00)" size="6" pos="0" show="00:00:00:00:00:00" value="000000000000">
        <field name="eth.addr" showname="Address: 00:00:00_00:00:00 (00:00:00:00:00:00)" size="6" pos="0" show="00:00:00:00:00:00" value="000000000000"/>
        <field name="eth.ig" showname=".... ...0 .... .... .... .... = IG bit: Individual address (unicast)" size="3" pos="0" show="0" value="0" unmaskedvalue="000000"/>
        <field name="eth.lg" showname=".... ..0. .... .... .... .... = LG bit: Globally unique address (factory default)" size="3" pos="0" show="0" value="0" unmaskedvalue="000000"/>
      </field>
      <field name="eth.src" showname="Source: 00:00:00_00:00:00 (00:00:00:00:00:00)" size="6" pos="6" show="00:00:00:00:00:00" value="000000000000">
        <field name="eth.addr" showname="Address: 00:00:00_00:00:00 (00:00:00:00:00:00)" size="6" pos="6" show="00:00:00:00:00:00" value="000000000000"/>
        <field name="eth.ig" showname=".... ...0 .... .... .... .... = IG bit: Individual address (unicast)" size="3" pos="6" show="0" value="0" unmaskedvalue="000000"/>
        <field name="eth.lg" showname=".... ..0. .... .... .... .... = LG bit: Globally unique address (factory default)" size="3" pos="6" show="0" value="0" unmaskedvalue="000000"/>
      </field>
      <field name="eth.type" showname="Type: IP (0x0800)" size="2" pos="12" show="0x0800" value="0800"/>
    </proto>
    <proto name="ip" showname="Internet Protocol Version 4, Src: 127.0.0.1 (127.0.0.1), Dst: 127.0.0.1 (127.0.0.1)" size="20" pos="14">
      <field name="ip.version" showname="Version: 4" size="1" pos="14" show="4" value="45"/>
      <field name="ip.hdr_len" showname="Header length: 20 bytes" size="1" pos="14" show="20" value="45"/>
      <field name="ip.dsfield" showname="Differentiated Services Field: 0x00 (DSCP 0x00: Default; ECN: 0x00: Not-ECT (Not ECN-Capable Transport))" size="1" pos="15" show="0" value="00">
        <field name="ip.dsfield.dscp" showname="0000 00.. = Differentiated Services Codepoint: Default (0x00)" size="1" pos="15" show="0x00" value="0" unmaskedvalue="00"/>
        <field name="ip.dsfield.ecn" showname=".... ..00 = Explicit Congestion Notification: Not-ECT (Not ECN-Capable Transport) (0x00)" size="1" pos="15" show="0x00" value="0" unmaskedvalue="00"/>
      </field>
      <field name="ip.len" showname="Total Length: 538" size="2" pos="16" show="538" value="021a"/>
      <field name="ip.id" showname="Identification: 0x7f5e (32606)" size="2" pos="18" show="0x7f5e" value="7f5e"/>
      <field name="ip.flags" showname="Flags: 0x02 (Don't Fragment)" size="1" pos="20" show="0x02" value="40">
        <field name="ip.flags.rb" showname="0... .... = Reserved bit: Not set" size="1" pos="20" show="0" value="40"/>
        <field name="ip.flags.df" showname=".1.. .... = Don't fragment: Set" size="1" pos="20" show="1" value="40"/>
        <field name="ip.flags.mf" showname="..0. .... = More fragments: Not set" size="1" pos="20" show="0" value="40"/>
      </field>
      <field name="ip.frag_offset" showname="Fragment offset: 0" size="2" pos="20" show="0" value="4000"/>
      <field name="ip.ttl" showname="Time to live: 64" size="1" pos="22" show="64" value="40"/>
      <field name="ip.proto" showname="Protocol: TCP (6)" size="1" pos="23" show="6" value="06"/>
      <field name="ip.checksum" showname="Header checksum: 0xbb7d [correct]" size="2" pos="24" show="0xbb7d" value="bb7d">
        <field name="ip.checksum_good" showname="Good: True" size="2" pos="24" show="1" value="bb7d"/>
        <field name="ip.checksum_bad" showname="Bad: False" size="2" pos="24" show="0" value="bb7d"/>
      </field>
      <field name="ip.src" showname="Source: 127.0.0.1 (127.0.0.1)" size="4" pos="26" show="127.0.0.1" value="7f000001"/>
      <field name="ip.addr" showname="Source or Destination Address: 127.0.0.1 (127.0.0.1)" hide="yes" size="4" pos="26" show="127.0.0.1" value="7f000001"/>
      <field name="ip.src_host" showname="Source Host: 127.0.0.1" hide="yes" size="4" pos="26" show="127.0.0.1" value="7f000001"/>
      <field name="ip.host" showname="Source or Destination Host: 127.0.0.1" hide="yes" size="4" pos="26" show="127.0.0.1" value="7f000001"/>
      <field name="ip.dst" showname="Destination: 127.0.0.1 (127.0.0.1)" size="4" pos="30" show="127.0.0.1" value="7f000001"/>
      <field name="ip.addr" showname="Source or Destination Address: 127.0.0.1 (127.0.0.1)" hide="yes" size="4" pos="30" show="127.0.0.1" value="7f000001"/>
      <field name="ip.dst_host" showname="Destination Host: 127.0.0.1" hide="yes" size="4" pos="30" show="127.0.0.1" value="7f000001"/>
      <field name="ip.host" showname="Source or Destination Host: 127.0.0.1" hide="yes" size="4" pos="30" show="127.0.0.1" value="7f000001"/>
    </proto>
    <proto name="tcp" showname="Transmission Control Protocol, Src Port: 37097 (37097), Dst Port: http (80), Seq: 1, Ack: 1, Len: 486" size="32" pos="34">
      <field name="tcp.srcport" showname="Source port: 37097 (37097)" size="2" pos="34" show="37097" value="90e9"/>
      <field name="tcp.dstport" showname="Destination port: http (80)" size="2" pos="36" show="80" value="0050"/>
      <field name="tcp.port" showname="Source or Destination Port: 37097" hide="yes" size="2" pos="34" show="37097" value="90e9"/>
      <field name="tcp.port" showname="Source or Destination Port: 80" hide="yes" size="2" pos="36" show="80" value="0050"/>
      <field name="tcp.stream" showname="Stream index: 5" size="0" pos="34" show="5"/>
      <field name="tcp.len" showname="TCP Segment Len: 486" hide="yes" size="1" pos="46" show="486" value="80"/>
      <field name="tcp.seq" showname="Sequence number: 1    (relative sequence number)" size="4" pos="38" show="1" value="88715c03"/>
      <field name="tcp.nxtseq" showname="Next sequence number: 487    (relative sequence number)" size="0" pos="34" show="487"/>
      <field name="tcp.ack" showname="Acknowledgement number: 1    (relative ack number)" size="4" pos="42" show="1" value="0e2c831a"/>
      <field name="tcp.hdr_len" showname="Header length: 32 bytes" size="1" pos="46" show="32" value="80"/>
      <field name="tcp.flags" showname="Flags: 0x18 (PSH, ACK)" size="2" pos="46" show="0x18" value="8018">
        <field name="tcp.flags.res" showname="000. .... .... = Reserved: Not set" size="1" pos="46" show="0" value="0" unmaskedvalue="80"/>
        <field name="tcp.flags.ns" showname="...0 .... .... = Nonce: Not set" size="1" pos="46" show="0" value="0" unmaskedvalue="80"/>
        <field name="tcp.flags.cwr" showname=".... 0... .... = Congestion Window Reduced (CWR): Not set" size="1" pos="47" show="0" value="0" unmaskedvalue="18"/>
        <field name="tcp.flags.ecn" showname=".... .0.. .... = ECN-Echo: Not set" size="1" pos="47" show="0" value="0" unmaskedvalue="18"/>
        <field name="tcp.flags.urg" showname=".... ..0. .... = Urgent: Not set" size="1" pos="47" show="0" value="0" unmaskedvalue="18"/>
        <field name="tcp.flags.ack" showname=".... ...1 .... = Acknowledgement: Set" size="1" pos="47" show="1" value="1" unmaskedvalue="18"/>
        <field name="tcp.flags.push" showname=".... .... 1... = Push: Set" size="1" pos="47" show="1" value="1" unmaskedvalue="18"/>
        <field name="tcp.flags.reset" showname=".... .... .0.. = Reset: Not set" size="1" pos="47" show="0" value="0" unmaskedvalue="18"/>
        <field name="tcp.flags.syn" showname=".... .... ..0. = Syn: Not set" size="1" pos="47" show="0" value="0" unmaskedvalue="18"/>
        <field name="tcp.flags.fin" showname=".... .... ...0 = Fin: Not set" size="1" pos="47" show="0" value="0" unmaskedvalue="18"/>
      </field>
      <field name="tcp.window_size_value" showname="Window size value: 257" size="2" pos="48" show="257" value="0101"/>
      <field name="tcp.window_size" showname="Calculated window size: 32896" size="2" pos="48" show="32896" value="0101"/>
      <field name="tcp.window_size_scalefactor" showname="Window size scaling factor: 128" size="2" pos="48" show="128" value="0101"/>
      <field name="tcp.checksum" showname="Checksum: 0x000f [validation disabled]" size="2" pos="50" show="0x000f" value="000f">
        <field name="tcp.checksum_good" showname="Good Checksum: False" size="2" pos="50" show="0" value="000f"/>
        <field name="tcp.checksum_bad" showname="Bad Checksum: False" size="2" pos="50" show="0" value="000f"/>
      </field>
      <field name="tcp.options" showname="Options: (12 bytes)" size="12" pos="54" show="01:01:08:0a:00:14:23:74:00:14:23:5e" value="0101080a001423740014235e">
        <field name="" show="No-Operation (NOP)" size="1" pos="54" value="01"/>
        <field name="" show="No-Operation (NOP)" size="1" pos="55" value="01"/>
        <field name="" show="Timestamps: TSval 1319796, TSecr 1319774" size="10" pos="56" value="080a001423740014235e">
          <field name="tcp.option_kind" showname="Kind: Timestamp (8)" size="1" pos="56" show="8" value="08"/>
          <field name="tcp.option_len" showname="Length: 10" size="1" pos="57" show="10" value="0a"/>
          <field name="tcp.options.timestamp.tsval" showname="Timestamp value: 1319796" size="4" pos="58" show="1319796" value="00142374"/>
          <field name="tcp.options.timestamp.tsecr" showname="Timestamp echo reply: 1319774" size="4" pos="62" show="1319774" value="0014235e"/>
        </field>
      </field>
      <field name="" show="SEQ/ACK analysis" size="0" pos="34" value="">
        <field name="tcp.analysis.bytes_in_flight" showname="Bytes in flight: 486" size="0" pos="34" show="486"/>
      </field>
    </proto>
    <proto name="http" showname="Hypertext Transfer Protocol" size="486" pos="66">
      <field name="" show="GET /scripts/vendor/jquery/jquery-1.7.2.js HTTP/1.1\r\n" size="53" pos="66" value="474554202f736372697074732f76656e646f722f6a71756572792f6a71756572792d312e372e322e6a7320485454502f312e310d0a">
        <proto name="expert" showname="Expert Info (Chat/Sequence): GET /scripts/vendor/jquery/jquery-1.7.2.js HTTP/1.1\r\n" size="0" pos="0">
          <field name="expert.message" showname="Message: GET /scripts/vendor/jquery/jquery-1.7.2.js HTTP/1.1\r\n" size="0" pos="0" show="GET /scripts/vendor/jquery/jquery-1.7.2.js HTTP/1.1\\r\\n"/>
          <field name="expert.severity" showname="Severity level: Chat" size="0" pos="0" show="Chat"/>
          <field name="expert.group" showname="Group: Sequence" size="0" pos="0" show="Sequence"/>
        </proto>
        <field name="http.request.method" showname="Request Method: GET" size="3" pos="66" show="GET" value="474554"/>
        <field name="http.request.uri" showname="Request URI: /scripts/vendor/jquery/jquery-1.7.2.js" size="38" pos="70" show="/scripts/vendor/jquery/jquery-1.7.2.js" value="2f736372697074732f76656e646f722f6a71756572792f6a71756572792d312e372e322e6a73"/>
        <field name="http.request.version" showname="Request Version: HTTP/1.1" size="8" pos="109" show="HTTP/1.1" value="485454502f312e31"/>
      </field>
      <field name="http.host" showname="Host: glamster\r\n" size="16" pos="119" show="glamster" value="486f73743a20676c616d737465720d0a"/>
      <field name="http.connection" showname="Connection: keep-alive\r\n" size="24" pos="135" show="keep-alive" value="436f6e6e656374696f6e3a206b6565702d616c6976650d0a"/>
      <field name="http.user_agent" showname="User-Agent: Mozilla/5.0 (X11; Linux x86_64) AppleWebKit/535.19 (KHTML, like Gecko) Ubuntu/11.10 Chromium/18.0.1025.142 Chrome/18.0.1025.142 Safari/535.19\r\n" size="155" pos="159" show="Mozilla/5.0 (X11; Linux x86_64) AppleWebKit/535.19 (KHTML, like Gecko) Ubuntu/11.10 Chromium/18.0.1025.142 Chrome/18.0.1025.142 Safari/535.19" value="557365722d4167656e743a204d6f7a696c6c612f352e3020285831313b204c696e7578207838365f363429204170706c655765624b69742f3533352e313920284b48544d4c2c206c696b65204765636b6f29205562756e74752f31312e3130204368726f6d69756d2f31382e302e313032352e313432204368726f6d652f31382e302e313032352e313432205361666172692f3533352e31390d0a"/>
      <field name="http.accept" showname="Accept: */*\r\n" size="13" pos="314" show="*/*" value="4163636570743a202a2f2a0d0a"/>
      <field name="http.referer" showname="Referer: http://glamster/\r\n" size="27" pos="327" show="http://glamster/" value="526566657265723a20687474703a2f2f676c616d737465722f0d0a"/>
      <field name="http.accept_encoding" showname="Accept-Encoding: gzip,deflate,sdch\r\n" size="36" pos="354" show="gzip,deflate,sdch" value="4163636570742d456e636f64696e673a20677a69702c6465666c6174652c736463680d0a"/>
      <field name="http.accept_language" showname="Accept-Language: en-US,en;q=0.8\r\n" size="33" pos="390" show="en-US,en;q=0.8" value="4163636570742d4c616e67756167653a20656e2d55532c656e3b713d302e380d0a"/>
      <field name="" show="Accept-Charset: ISO-8859-1,utf-8;q=0.7,*;q=0.3\r\n" size="48" pos="423" value="4163636570742d436861727365743a2049534f2d383835392d312c7574662d383b713d302e372c2a3b713d302e330d0a"/>
      <field name="" show="If-None-Match: &quot;2905164120&quot;\r\n" size="29" pos="471" value="49662d4e6f6e652d4d617463683a202232393035313634313230220d0a"/>
      <field name="" show="If-Modified-Since: Wed, 21 Mar 2012 19:46:56 GMT\r\n" size="50" pos="500" value="49662d4d6f6469666965642d53696e63653a205765642c203231204d617220323031322031393a34363a353620474d540d0a"/>
      <field name="" show="\r\n" size="2" pos="550" value="0d0a"/>
      <field name="http.request.full_uri" showname="Full request URI: http://glamster/scripts/vendor/jquery/jquery-1.7.2.js" size="0" pos="66" show="http://glamster/scripts/vendor/jquery/jquery-1.7.2.js"/>
      <field name="http.request" showname="Request: True" hide="yes" size="0" pos="66" show="1"/>
    </proto>
  </packet>
  <packet>
    <proto name="geninfo" pos="0" showname="General information" size="66">
      <field name="num" pos="0" show="52" showname="Number" value="34" size="66"/>
      <field name="len" pos="0" show="66" showname="Frame Length" value="42" size="66"/>
      <field name="caplen" pos="0" show="66" showname="Captured Length" value="42" size="66"/>
      <field name="timestamp" pos="0" show="Apr 20, 2012 09:11:07.544049000 CEST" showname="Captured Time" value="1334905867.544049000" size="66"/>
    </proto>
    <proto name="frame" showname="Frame 52: 66 bytes on wire (528 bits), 66 bytes captured (528 bits)" size="66" pos="0">
      <field name="frame.time" showname="Arrival Time: Apr 20, 2012 09:11:07.544049000 CEST" size="0" pos="0" show="Apr 20, 2012 09:11:07.544049000"/>
      <field name="frame.time_epoch" showname="Epoch Time: 1334905867.544049000 seconds" size="0" pos="0" show="1334905867.544049000"/>
      <field name="frame.time_delta" showname="Time delta from previous captured frame: 0.000043000 seconds" size="0" pos="0" show="0.000043000"/>
      <field name="frame.time_delta_displayed" showname="Time delta from previous displayed frame: 0.000043000 seconds" size="0" pos="0" show="0.000043000"/>
      <field name="frame.time_relative" showname="Time since reference or first frame: 0.089855000 seconds" size="0" pos="0" show="0.089855000"/>
      <field name="frame.number" showname="Frame Number: 52" size="0" pos="0" show="52"/>
      <field name="frame.len" showname="Frame Length: 66 bytes (528 bits)" size="0" pos="0" show="66"/>
      <field name="frame.cap_len" showname="Capture Length: 66 bytes (528 bits)" size="0" pos="0" show="66"/>
      <field name="frame.marked" showname="Frame is marked: False" size="0" pos="0" show="0"/>
      <field name="frame.ignored" showname="Frame is ignored: False" size="0" pos="0" show="0"/>
      <field name="frame.protocols" showname="Protocols in frame: eth:ip:tcp" size="0" pos="0" show="eth:ip:tcp"/>
    </proto>
    <proto name="eth" showname="Ethernet II, Src: 00:00:00_00:00:00 (00:00:00:00:00:00), Dst: 00:00:00_00:00:00 (00:00:00:00:00:00)" size="14" pos="0">
      <field name="eth.dst" showname="Destination: 00:00:00_00:00:00 (00:00:00:00:00:00)" size="6" pos="0" show="00:00:00:00:00:00" value="000000000000">
        <field name="eth.addr" showname="Address: 00:00:00_00:00:00 (00:00:00:00:00:00)" size="6" pos="0" show="00:00:00:00:00:00" value="000000000000"/>
        <field name="eth.ig" showname=".... ...0 .... .... .... .... = IG bit: Individual address (unicast)" size="3" pos="0" show="0" value="0" unmaskedvalue="000000"/>
        <field name="eth.lg" showname=".... ..0. .... .... .... .... = LG bit: Globally unique address (factory default)" size="3" pos="0" show="0" value="0" unmaskedvalue="000000"/>
      </field>
      <field name="eth.src" showname="Source: 00:00:00_00:00:00 (00:00:00:00:00:00)" size="6" pos="6" show="00:00:00:00:00:00" value="000000000000">
        <field name="eth.addr" showname="Address: 00:00:00_00:00:00 (00:00:00:00:00:00)" size="6" pos="6" show="00:00:00:00:00:00" value="000000000000"/>
        <field name="eth.ig" showname=".... ...0 .... .... .... .... = IG bit: Individual address (unicast)" size="3" pos="6" show="0" value="0" unmaskedvalue="000000"/>
        <field name="eth.lg" showname=".... ..0. .... .... .... .... = LG bit: Globally unique address (factory default)" size="3" pos="6" show="0" value="0" unmaskedvalue="000000"/>
      </field>
      <field name="eth.type" showname="Type: IP (0x0800)" size="2" pos="12" show="0x0800" value="0800"/>
    </proto>
    <proto name="ip" showname="Internet Protocol Version 4, Src: 127.0.0.1 (127.0.0.1), Dst: 127.0.0.1 (127.0.0.1)" size="20" pos="14">
      <field name="ip.version" showname="Version: 4" size="1" pos="14" show="4" value="45"/>
      <field name="ip.hdr_len" showname="Header length: 20 bytes" size="1" pos="14" show="20" value="45"/>
      <field name="ip.dsfield" showname="Differentiated Services Field: 0x00 (DSCP 0x00: Default; ECN: 0x00: Not-ECT (Not ECN-Capable Transport))" size="1" pos="15" show="0" value="00">
        <field name="ip.dsfield.dscp" showname="0000 00.. = Differentiated Services Codepoint: Default (0x00)" size="1" pos="15" show="0x00" value="0" unmaskedvalue="00"/>
        <field name="ip.dsfield.ecn" showname=".... ..00 = Explicit Congestion Notification: Not-ECT (Not ECN-Capable Transport) (0x00)" size="1" pos="15" show="0x00" value="0" unmaskedvalue="00"/>
      </field>
      <field name="ip.len" showname="Total Length: 52" size="2" pos="16" show="52" value="0034"/>
      <field name="ip.id" showname="Identification: 0xa044 (41028)" size="2" pos="18" show="0xa044" value="a044"/>
      <field name="ip.flags" showname="Flags: 0x02 (Don't Fragment)" size="1" pos="20" show="0x02" value="40">
        <field name="ip.flags.rb" showname="0... .... = Reserved bit: Not set" size="1" pos="20" show="0" value="40"/>
        <field name="ip.flags.df" showname=".1.. .... = Don't fragment: Set" size="1" pos="20" show="1" value="40"/>
        <field name="ip.flags.mf" showname="..0. .... = More fragments: Not set" size="1" pos="20" show="0" value="40"/>
      </field>
      <field name="ip.frag_offset" showname="Fragment offset: 0" size="2" pos="20" show="0" value="4000"/>
      <field name="ip.ttl" showname="Time to live: 64" size="1" pos="22" show="64" value="40"/>
      <field name="ip.proto" showname="Protocol: TCP (6)" size="1" pos="23" show="6" value="06"/>
      <field name="ip.checksum" showname="Header checksum: 0x9c7d [correct]" size="2" pos="24" show="0x9c7d" value="9c7d">
        <field name="ip.checksum_good" showname="Good: True" size="2" pos="24" show="1" value="9c7d"/>
        <field name="ip.checksum_bad" showname="Bad: False" size="2" pos="24" show="0" value="9c7d"/>
      </field>
      <field name="ip.src" showname="Source: 127.0.0.1 (127.0.0.1)" size="4" pos="26" show="127.0.0.1" value="7f000001"/>
      <field name="ip.addr" showname="Source or Destination Address: 127.0.0.1 (127.0.0.1)" hide="yes" size="4" pos="26" show="127.0.0.1" value="7f000001"/>
      <field name="ip.src_host" showname="Source Host: 127.0.0.1" hide="yes" size="4" pos="26" show="127.0.0.1" value="7f000001"/>
      <field name="ip.host" showname="Source or Destination Host: 127.0.0.1" hide="yes" size="4" pos="26" show="127.0.0.1" value="7f000001"/>
      <field name="ip.dst" showname="Destination: 127.0.0.1 (127.0.0.1)" size="4" pos="30" show="127.0.0.1" value="7f000001"/>
      <field name="ip.addr" showname="Source or Destination Address: 127.0.0.1 (127.0.0.1)" hide="yes" size="4" pos="30" show="127.0.0.1" value="7f000001"/>
      <field name="ip.dst_host" showname="Destination Host: 127.0.0.1" hide="yes" size="4" pos="30" show="127.0.0.1" value="7f000001"/>
      <field name="ip.host" showname="Source or Destination Host: 127.0.0.1" hide="yes" size="4" pos="30" show="127.0.0.1" value="7f000001"/>
    </proto>
    <proto name="tcp" showname="Transmission Control Protocol, Src Port: http (80), Dst Port: 37097 (37097), Seq: 1, Ack: 487, Len: 0" size="32" pos="34">
      <field name="tcp.srcport" showname="Source port: http (80)" size="2" pos="34" show="80" value="0050"/>
      <field name="tcp.dstport" showname="Destination port: 37097 (37097)" size="2" pos="36" show="37097" value="90e9"/>
      <field name="tcp.port" showname="Source or Destination Port: 80" hide="yes" size="2" pos="34" show="80" value="0050"/>
      <field name="tcp.port" showname="Source or Destination Port: 37097" hide="yes" size="2" pos="36" show="37097" value="90e9"/>
      <field name="tcp.stream" showname="Stream index: 5" size="0" pos="34" show="5"/>
      <field name="tcp.len" showname="TCP Segment Len: 0" hide="yes" size="1" pos="46" show="0" value="80"/>
      <field name="tcp.seq" showname="Sequence number: 1    (relative sequence number)" size="4" pos="38" show="1" value="0e2c831a"/>
      <field name="tcp.ack" showname="Acknowledgement number: 487    (relative ack number)" size="4" pos="42" show="487" value="88715de9"/>
      <field name="tcp.hdr_len" showname="Header length: 32 bytes" size="1" pos="46" show="32" value="80"/>
      <field name="tcp.flags" showname="Flags: 0x10 (ACK)" size="2" pos="46" show="0x10" value="8010">
        <field name="tcp.flags.res" showname="000. .... .... = Reserved: Not set" size="1" pos="46" show="0" value="0" unmaskedvalue="80"/>
        <field name="tcp.flags.ns" showname="...0 .... .... = Nonce: Not set" size="1" pos="46" show="0" value="0" unmaskedvalue="80"/>
        <field name="tcp.flags.cwr" showname=".... 0... .... = Congestion Window Reduced (CWR): Not set" size="1" pos="47" show="0" value="0" unmaskedvalue="10"/>
        <field name="tcp.flags.ecn" showname=".... .0.. .... = ECN-Echo: Not set" size="1" pos="47" show="0" value="0" unmaskedvalue="10"/>
        <field name="tcp.flags.urg" showname=".... ..0. .... = Urgent: Not set" size="1" pos="47" show="0" value="0" unmaskedvalue="10"/>
        <field name="tcp.flags.ack" showname=".... ...1 .... = Acknowledgement: Set" size="1" pos="47" show="1" value="1" unmaskedvalue="10"/>
        <field name="tcp.flags.push" showname=".... .... 0... = Push: Not set" size="1" pos="47" show="0" value="0" unmaskedvalue="10"/>
        <field name="tcp.flags.reset" showname=".... .... .0.. = Reset: Not set" size="1" pos="47" show="0" value="0" unmaskedvalue="10"/>
        <field name="tcp.flags.syn" showname=".... .... ..0. = Syn: Not set" size="1" pos="47" show="0" value="0" unmaskedvalue="10"/>
        <field name="tcp.flags.fin" showname=".... .... ...0 = Fin: Not set" size="1" pos="47" show="0" value="0" unmaskedvalue="10"/>
      </field>
      <field name="tcp.window_size_value" showname="Window size value: 265" size="2" pos="48" show="265" value="0109"/>
      <field name="tcp.window_size" showname="Calculated window size: 33920" size="2" pos="48" show="33920" value="0109"/>
      <field name="tcp.window_size_scalefactor" showname="Window size scaling factor: 128" size="2" pos="48" show="128" value="0109"/>
      <field name="tcp.checksum" showname="Checksum: 0xfe28 [validation disabled]" size="2" pos="50" show="0xfe28" value="fe28">
        <field name="tcp.checksum_good" showname="Good Checksum: False" size="2" pos="50" show="0" value="fe28"/>
        <field name="tcp.checksum_bad" showname="Bad Checksum: False" size="2" pos="50" show="0" value="fe28"/>
      </field>
      <field name="tcp.options" showname="Options: (12 bytes)" size="12" pos="54" show="01:01:08:0a:00:14:23:74:00:14:23:74" value="0101080a0014237400142374">
        <field name="" show="No-Operation (NOP)" size="1" pos="54" value="01"/>
        <field name="" show="No-Operation (NOP)" size="1" pos="55" value="01"/>
        <field name="" show="Timestamps: TSval 1319796, TSecr 1319796" size="10" pos="56" value="080a0014237400142374">
          <field name="tcp.option_kind" showname="Kind: Timestamp (8)" size="1" pos="56" show="8" value="08"/>
          <field name="tcp.option_len" showname="Length: 10" size="1" pos="57" show="10" value="0a"/>
          <field name="tcp.options.timestamp.tsval" showname="Timestamp value: 1319796" size="4" pos="58" show="1319796" value="00142374"/>
          <field name="tcp.options.timestamp.tsecr" showname="Timestamp echo reply: 1319796" size="4" pos="62" show="1319796" value="00142374"/>
        </field>
      </field>
      <field name="" show="SEQ/ACK analysis" size="0" pos="34" value="">
        <field name="tcp.analysis.acks_frame" showname="This is an ACK to the segment in frame: 51" size="0" pos="34" show="51"/>
        <field name="tcp.analysis.ack_rtt" showname="The RTT to ACK the segment was: 0.000043000 seconds" size="0" pos="34" show="0.000043000"/>
      </field>
    </proto>
  </packet>
  <packet>
    <proto name="geninfo" pos="0" showname="General information" size="283">
      <field name="num" pos="0" show="53" showname="Number" value="35" size="283"/>
      <field name="len" pos="0" show="283" showname="Frame Length" value="11b" size="283"/>
      <field name="caplen" pos="0" show="283" showname="Captured Length" value="11b" size="283"/>
      <field name="timestamp" pos="0" show="Apr 20, 2012 09:11:07.544361000 CEST" showname="Captured Time" value="1334905867.544361000" size="283"/>
    </proto>
    <proto name="frame" showname="Frame 53: 283 bytes on wire (2264 bits), 283 bytes captured (2264 bits)" size="283" pos="0">
      <field name="frame.time" showname="Arrival Time: Apr 20, 2012 09:11:07.544361000 CEST" size="0" pos="0" show="Apr 20, 2012 09:11:07.544361000"/>
      <field name="frame.time_epoch" showname="Epoch Time: 1334905867.544361000 seconds" size="0" pos="0" show="1334905867.544361000"/>
      <field name="frame.time_delta" showname="Time delta from previous captured frame: 0.000312000 seconds" size="0" pos="0" show="0.000312000"/>
      <field name="frame.time_delta_displayed" showname="Time delta from previous displayed frame: 0.000312000 seconds" size="0" pos="0" show="0.000312000"/>
      <field name="frame.time_relative" showname="Time since reference or first frame: 0.090167000 seconds" size="0" pos="0" show="0.090167000"/>
      <field name="frame.number" showname="Frame Number: 53" size="0" pos="0" show="53"/>
      <field name="frame.len" showname="Frame Length: 283 bytes (2264 bits)" size="0" pos="0" show="283"/>
      <field name="frame.cap_len" showname="Capture Length: 283 bytes (2264 bits)" size="0" pos="0" show="283"/>
      <field name="frame.marked" showname="Frame is marked: False" size="0" pos="0" show="0"/>
      <field name="frame.ignored" showname="Frame is ignored: False" size="0" pos="0" show="0"/>
      <field name="frame.protocols" showname="Protocols in frame: eth:ip:tcp:http" size="0" pos="0" show="eth:ip:tcp:http"/>
    </proto>
    <proto name="eth" showname="Ethernet II, Src: 00:00:00_00:00:00 (00:00:00:00:00:00), Dst: 00:00:00_00:00:00 (00:00:00:00:00:00)" size="14" pos="0">
      <field name="eth.dst" showname="Destination: 00:00:00_00:00:00 (00:00:00:00:00:00)" size="6" pos="0" show="00:00:00:00:00:00" value="000000000000">
        <field name="eth.addr" showname="Address: 00:00:00_00:00:00 (00:00:00:00:00:00)" size="6" pos="0" show="00:00:00:00:00:00" value="000000000000"/>
        <field name="eth.ig" showname=".... ...0 .... .... .... .... = IG bit: Individual address (unicast)" size="3" pos="0" show="0" value="0" unmaskedvalue="000000"/>
        <field name="eth.lg" showname=".... ..0. .... .... .... .... = LG bit: Globally unique address (factory default)" size="3" pos="0" show="0" value="0" unmaskedvalue="000000"/>
      </field>
      <field name="eth.src" showname="Source: 00:00:00_00:00:00 (00:00:00:00:00:00)" size="6" pos="6" show="00:00:00:00:00:00" value="000000000000">
        <field name="eth.addr" showname="Address: 00:00:00_00:00:00 (00:00:00:00:00:00)" size="6" pos="6" show="00:00:00:00:00:00" value="000000000000"/>
        <field name="eth.ig" showname=".... ...0 .... .... .... .... = IG bit: Individual address (unicast)" size="3" pos="6" show="0" value="0" unmaskedvalue="000000"/>
        <field name="eth.lg" showname=".... ..0. .... .... .... .... = LG bit: Globally unique address (factory default)" size="3" pos="6" show="0" value="0" unmaskedvalue="000000"/>
      </field>
      <field name="eth.type" showname="Type: IP (0x0800)" size="2" pos="12" show="0x0800" value="0800"/>
    </proto>
    <proto name="ip" showname="Internet Protocol Version 4, Src: 127.0.0.1 (127.0.0.1), Dst: 127.0.0.1 (127.0.0.1)" size="20" pos="14">
      <field name="ip.version" showname="Version: 4" size="1" pos="14" show="4" value="45"/>
      <field name="ip.hdr_len" showname="Header length: 20 bytes" size="1" pos="14" show="20" value="45"/>
      <field name="ip.dsfield" showname="Differentiated Services Field: 0x00 (DSCP 0x00: Default; ECN: 0x00: Not-ECT (Not ECN-Capable Transport))" size="1" pos="15" show="0" value="00">
        <field name="ip.dsfield.dscp" showname="0000 00.. = Differentiated Services Codepoint: Default (0x00)" size="1" pos="15" show="0x00" value="0" unmaskedvalue="00"/>
        <field name="ip.dsfield.ecn" showname=".... ..00 = Explicit Congestion Notification: Not-ECT (Not ECN-Capable Transport) (0x00)" size="1" pos="15" show="0x00" value="0" unmaskedvalue="00"/>
      </field>
      <field name="ip.len" showname="Total Length: 269" size="2" pos="16" show="269" value="010d"/>
      <field name="ip.id" showname="Identification: 0xa045 (41029)" size="2" pos="18" show="0xa045" value="a045"/>
      <field name="ip.flags" showname="Flags: 0x02 (Don't Fragment)" size="1" pos="20" show="0x02" value="40">
        <field name="ip.flags.rb" showname="0... .... = Reserved bit: Not set" size="1" pos="20" show="0" value="40"/>
        <field name="ip.flags.df" showname=".1.. .... = Don't fragment: Set" size="1" pos="20" show="1" value="40"/>
        <field name="ip.flags.mf" showname="..0. .... = More fragments: Not set" size="1" pos="20" show="0" value="40"/>
      </field>
      <field name="ip.frag_offset" showname="Fragment offset: 0" size="2" pos="20" show="0" value="4000"/>
      <field name="ip.ttl" showname="Time to live: 64" size="1" pos="22" show="64" value="40"/>
      <field name="ip.proto" showname="Protocol: TCP (6)" size="1" pos="23" show="6" value="06"/>
      <field name="ip.checksum" showname="Header checksum: 0x9ba3 [correct]" size="2" pos="24" show="0x9ba3" value="9ba3">
        <field name="ip.checksum_good" showname="Good: True" size="2" pos="24" show="1" value="9ba3"/>
        <field name="ip.checksum_bad" showname="Bad: False" size="2" pos="24" show="0" value="9ba3"/>
      </field>
      <field name="ip.src" showname="Source: 127.0.0.1 (127.0.0.1)" size="4" pos="26" show="127.0.0.1" value="7f000001"/>
      <field name="ip.addr" showname="Source or Destination Address: 127.0.0.1 (127.0.0.1)" hide="yes" size="4" pos="26" show="127.0.0.1" value="7f000001"/>
      <field name="ip.src_host" showname="Source Host: 127.0.0.1" hide="yes" size="4" pos="26" show="127.0.0.1" value="7f000001"/>
      <field name="ip.host" showname="Source or Destination Host: 127.0.0.1" hide="yes" size="4" pos="26" show="127.0.0.1" value="7f000001"/>
      <field name="ip.dst" showname="Destination: 127.0.0.1 (127.0.0.1)" size="4" pos="30" show="127.0.0.1" value="7f000001"/>
      <field name="ip.addr" showname="Source or Destination Address: 127.0.0.1 (127.0.0.1)" hide="yes" size="4" pos="30" show="127.0.0.1" value="7f000001"/>
      <field name="ip.dst_host" showname="Destination Host: 127.0.0.1" hide="yes" size="4" pos="30" show="127.0.0.1" value="7f000001"/>
      <field name="ip.host" showname="Source or Destination Host: 127.0.0.1" hide="yes" size="4" pos="30" show="127.0.0.1" value="7f000001"/>
    </proto>
    <proto name="tcp" showname="Transmission Control Protocol, Src Port: http (80), Dst Port: 37097 (37097), Seq: 1, Ack: 487, Len: 217" size="32" pos="34">
      <field name="tcp.srcport" showname="Source port: http (80)" size="2" pos="34" show="80" value="0050"/>
      <field name="tcp.dstport" showname="Destination port: 37097 (37097)" size="2" pos="36" show="37097" value="90e9"/>
      <field name="tcp.port" showname="Source or Destination Port: 80" hide="yes" size="2" pos="34" show="80" value="0050"/>
      <field name="tcp.port" showname="Source or Destination Port: 37097" hide="yes" size="2" pos="36" show="37097" value="90e9"/>
      <field name="tcp.stream" showname="Stream index: 5" size="0" pos="34" show="5"/>
      <field name="tcp.len" showname="TCP Segment Len: 217" hide="yes" size="1" pos="46" show="217" value="80"/>
      <field name="tcp.seq" showname="Sequence number: 1    (relative sequence number)" size="4" pos="38" show="1" value="0e2c831a"/>
      <field name="tcp.nxtseq" showname="Next sequence number: 218    (relative sequence number)" size="0" pos="34" show="218"/>
      <field name="tcp.ack" showname="Acknowledgement number: 487    (relative ack number)" size="4" pos="42" show="487" value="88715de9"/>
      <field name="tcp.hdr_len" showname="Header length: 32 bytes" size="1" pos="46" show="32" value="80"/>
      <field name="tcp.flags" showname="Flags: 0x18 (PSH, ACK)" size="2" pos="46" show="0x18" value="8018">
        <field name="tcp.flags.res" showname="000. .... .... = Reserved: Not set" size="1" pos="46" show="0" value="0" unmaskedvalue="80"/>
        <field name="tcp.flags.ns" showname="...0 .... .... = Nonce: Not set" size="1" pos="46" show="0" value="0" unmaskedvalue="80"/>
        <field name="tcp.flags.cwr" showname=".... 0... .... = Congestion Window Reduced (CWR): Not set" size="1" pos="47" show="0" value="0" unmaskedvalue="18"/>
        <field name="tcp.flags.ecn" showname=".... .0.. .... = ECN-Echo: Not set" size="1" pos="47" show="0" value="0" unmaskedvalue="18"/>
        <field name="tcp.flags.urg" showname=".... ..0. .... = Urgent: Not set" size="1" pos="47" show="0" value="0" unmaskedvalue="18"/>
        <field name="tcp.flags.ack" showname=".... ...1 .... = Acknowledgement: Set" size="1" pos="47" show="1" value="1" unmaskedvalue="18"/>
        <field name="tcp.flags.push" showname=".... .... 1... = Push: Set" size="1" pos="47" show="1" value="1" unmaskedvalue="18"/>
        <field name="tcp.flags.reset" showname=".... .... .0.. = Reset: Not set" size="1" pos="47" show="0" value="0" unmaskedvalue="18"/>
        <field name="tcp.flags.syn" showname=".... .... ..0. = Syn: Not set" size="1" pos="47" show="0" value="0" unmaskedvalue="18"/>
        <field name="tcp.flags.fin" showname=".... .... ...0 = Fin: Not set" size="1" pos="47" show="0" value="0" unmaskedvalue="18"/>
      </field>
      <field name="tcp.window_size_value" showname="Window size value: 265" size="2" pos="48" show="265" value="0109"/>
      <field name="tcp.window_size" showname="Calculated window size: 33920" size="2" pos="48" show="33920" value="0109"/>
      <field name="tcp.window_size_scalefactor" showname="Window size scaling factor: 128" size="2" pos="48" show="128" value="0109"/>
      <field name="tcp.checksum" showname="Checksum: 0xff01 [validation disabled]" size="2" pos="50" show="0xff01" value="ff01">
        <field name="tcp.checksum_good" showname="Good Checksum: False" size="2" pos="50" show="0" value="ff01"/>
        <field name="tcp.checksum_bad" showname="Bad Checksum: False" size="2" pos="50" show="0" value="ff01"/>
      </field>
      <field name="tcp.options" showname="Options: (12 bytes)" size="12" pos="54" show="01:01:08:0a:00:14:23:75:00:14:23:74" value="0101080a0014237500142374">
        <field name="" show="No-Operation (NOP)" size="1" pos="54" value="01"/>
        <field name="" show="No-Operation (NOP)" size="1" pos="55" value="01"/>
        <field name="" show="Timestamps: TSval 1319797, TSecr 1319796" size="10" pos="56" value="080a0014237500142374">
          <field name="tcp.option_kind" showname="Kind: Timestamp (8)" size="1" pos="56" show="8" value="08"/>
          <field name="tcp.option_len" showname="Length: 10" size="1" pos="57" show="10" value="0a"/>
          <field name="tcp.options.timestamp.tsval" showname="Timestamp value: 1319797" size="4" pos="58" show="1319797" value="00142375"/>
          <field name="tcp.options.timestamp.tsecr" showname="Timestamp echo reply: 1319796" size="4" pos="62" show="1319796" value="00142374"/>
        </field>
      </field>
      <field name="" show="SEQ/ACK analysis" size="0" pos="34" value="">
        <field name="tcp.analysis.bytes_in_flight" showname="Bytes in flight: 217" size="0" pos="34" show="217"/>
      </field>
      <field name="tcp.data" showname="TCP segment data (217 bytes)" size="217" pos="66" show="48:54:54:50:2f:31:2e:31:20:33:30:34:20:4e:6f:74:20:4d:6f:64:69:66:69:65:64:0d:0a:43:6f:6e:74:65:6e:74:2d:54:79:70:65:3a:20:61:70:70:6c:69:63:61:74:69:6f:6e:2f:6a:61:76:61:73:63:72:69:70:74:0d:0a:41:63:63:65:70:74:2d:52:61:6e:67:65:73:3a:20:62:79:74:65:73:0d:0a:45:54:61:67:3a:20:22:32:39:30:35:31:36:34:31:32:30:22:0d:0a:4c:61:73:74:2d:4d:6f:64:69:66:69:65:64:3a:20:57:65:64:2c:20:32:31:20:4d:61:72:20:32:30:31:32:20:31:39:3a:34:36:3a:35:36:20:47:4d:54:0d:0a:44:61:74:65:3a:20:46:72:69:2c:20:32:30:20:41:70:72:20:32:30:31:32:20:30:37:3a:31:31:3a:30:37:20:47:4d:54:0d:0a:53:65:72:76:65:72:3a:20:6c:69:67:68:74:74:70:64:2f:31:2e:34:2e:32:38:0d:0a:0d:0a" value="485454502f312e3120333034204e6f74204d6f6469666965640d0a436f6e74656e742d547970653a206170706c69636174696f6e2f6a6176617363726970740d0a4163636570742d52616e6765733a2062797465730d0a455461673a202232393035313634313230220d0a4c6173742d4d6f6469666965643a205765642c203231204d617220323031322031393a34363a353620474d540d0a446174653a204672692c2032302041707220323031322030373a31313a303720474d540d0a5365727665723a206c696768747470642f312e342e32380d0a0d0a"/>
    </proto>
  </packet>
  <packet>
    <proto name="geninfo" pos="0" showname="General information" size="66">
      <field name="num" pos="0" show="54" showname="Number" value="36" size="66"/>
      <field name="len" pos="0" show="66" showname="Frame Length" value="42" size="66"/>
      <field name="caplen" pos="0" show="66" showname="Captured Length" value="42" size="66"/>
      <field name="timestamp" pos="0" show="Apr 20, 2012 09:11:07.544387000 CEST" showname="Captured Time" value="1334905867.544387000" size="66"/>
    </proto>
    <proto name="frame" showname="Frame 54: 66 bytes on wire (528 bits), 66 bytes captured (528 bits)" size="66" pos="0">
      <field name="frame.time" showname="Arrival Time: Apr 20, 2012 09:11:07.544387000 CEST" size="0" pos="0" show="Apr 20, 2012 09:11:07.544387000"/>
      <field name="frame.time_epoch" showname="Epoch Time: 1334905867.544387000 seconds" size="0" pos="0" show="1334905867.544387000"/>
      <field name="frame.time_delta" showname="Time delta from previous captured frame: 0.000026000 seconds" size="0" pos="0" show="0.000026000"/>
      <field name="frame.time_delta_displayed" showname="Time delta from previous displayed frame: 0.000026000 seconds" size="0" pos="0" show="0.000026000"/>
      <field name="frame.time_relative" showname="Time since reference or first frame: 0.090193000 seconds" size="0" pos="0" show="0.090193000"/>
      <field name="frame.number" showname="Frame Number: 54" size="0" pos="0" show="54"/>
      <field name="frame.len" showname="Frame Length: 66 bytes (528 bits)" size="0" pos="0" show="66"/>
      <field name="frame.cap_len" showname="Capture Length: 66 bytes (528 bits)" size="0" pos="0" show="66"/>
      <field name="frame.marked" showname="Frame is marked: False" size="0" pos="0" show="0"/>
      <field name="frame.ignored" showname="Frame is ignored: False" size="0" pos="0" show="0"/>
      <field name="frame.protocols" showname="Protocols in frame: eth:ip:tcp" size="0" pos="0" show="eth:ip:tcp"/>
    </proto>
    <proto name="eth" showname="Ethernet II, Src: 00:00:00_00:00:00 (00:00:00:00:00:00), Dst: 00:00:00_00:00:00 (00:00:00:00:00:00)" size="14" pos="0">
      <field name="eth.dst" showname="Destination: 00:00:00_00:00:00 (00:00:00:00:00:00)" size="6" pos="0" show="00:00:00:00:00:00" value="000000000000">
        <field name="eth.addr" showname="Address: 00:00:00_00:00:00 (00:00:00:00:00:00)" size="6" pos="0" show="00:00:00:00:00:00" value="000000000000"/>
        <field name="eth.ig" showname=".... ...0 .... .... .... .... = IG bit: Individual address (unicast)" size="3" pos="0" show="0" value="0" unmaskedvalue="000000"/>
        <field name="eth.lg" showname=".... ..0. .... .... .... .... = LG bit: Globally unique address (factory default)" size="3" pos="0" show="0" value="0" unmaskedvalue="000000"/>
      </field>
      <field name="eth.src" showname="Source: 00:00:00_00:00:00 (00:00:00:00:00:00)" size="6" pos="6" show="00:00:00:00:00:00" value="000000000000">
        <field name="eth.addr" showname="Address: 00:00:00_00:00:00 (00:00:00:00:00:00)" size="6" pos="6" show="00:00:00:00:00:00" value="000000000000"/>
        <field name="eth.ig" showname=".... ...0 .... .... .... .... = IG bit: Individual address (unicast)" size="3" pos="6" show="0" value="0" unmaskedvalue="000000"/>
        <field name="eth.lg" showname=".... ..0. .... .... .... .... = LG bit: Globally unique address (factory default)" size="3" pos="6" show="0" value="0" unmaskedvalue="000000"/>
      </field>
      <field name="eth.type" showname="Type: IP (0x0800)" size="2" pos="12" show="0x0800" value="0800"/>
    </proto>
    <proto name="ip" showname="Internet Protocol Version 4, Src: 127.0.0.1 (127.0.0.1), Dst: 127.0.0.1 (127.0.0.1)" size="20" pos="14">
      <field name="ip.version" showname="Version: 4" size="1" pos="14" show="4" value="45"/>
      <field name="ip.hdr_len" showname="Header length: 20 bytes" size="1" pos="14" show="20" value="45"/>
      <field name="ip.dsfield" showname="Differentiated Services Field: 0x00 (DSCP 0x00: Default; ECN: 0x00: Not-ECT (Not ECN-Capable Transport))" size="1" pos="15" show="0" value="00">
        <field name="ip.dsfield.dscp" showname="0000 00.. = Differentiated Services Codepoint: Default (0x00)" size="1" pos="15" show="0x00" value="0" unmaskedvalue="00"/>
        <field name="ip.dsfield.ecn" showname=".... ..00 = Explicit Congestion Notification: Not-ECT (Not ECN-Capable Transport) (0x00)" size="1" pos="15" show="0x00" value="0" unmaskedvalue="00"/>
      </field>
      <field name="ip.len" showname="Total Length: 52" size="2" pos="16" show="52" value="0034"/>
      <field name="ip.id" showname="Identification: 0x7f5f (32607)" size="2" pos="18" show="0x7f5f" value="7f5f"/>
      <field name="ip.flags" showname="Flags: 0x02 (Don't Fragment)" size="1" pos="20" show="0x02" value="40">
        <field name="ip.flags.rb" showname="0... .... = Reserved bit: Not set" size="1" pos="20" show="0" value="40"/>
        <field name="ip.flags.df" showname=".1.. .... = Don't fragment: Set" size="1" pos="20" show="1" value="40"/>
        <field name="ip.flags.mf" showname="..0. .... = More fragments: Not set" size="1" pos="20" show="0" value="40"/>
      </field>
      <field name="ip.frag_offset" showname="Fragment offset: 0" size="2" pos="20" show="0" value="4000"/>
      <field name="ip.ttl" showname="Time to live: 64" size="1" pos="22" show="64" value="40"/>
      <field name="ip.proto" showname="Protocol: TCP (6)" size="1" pos="23" show="6" value="06"/>
      <field name="ip.checksum" showname="Header checksum: 0xbd62 [correct]" size="2" pos="24" show="0xbd62" value="bd62">
        <field name="ip.checksum_good" showname="Good: True" size="2" pos="24" show="1" value="bd62"/>
        <field name="ip.checksum_bad" showname="Bad: False" size="2" pos="24" show="0" value="bd62"/>
      </field>
      <field name="ip.src" showname="Source: 127.0.0.1 (127.0.0.1)" size="4" pos="26" show="127.0.0.1" value="7f000001"/>
      <field name="ip.addr" showname="Source or Destination Address: 127.0.0.1 (127.0.0.1)" hide="yes" size="4" pos="26" show="127.0.0.1" value="7f000001"/>
      <field name="ip.src_host" showname="Source Host: 127.0.0.1" hide="yes" size="4" pos="26" show="127.0.0.1" value="7f000001"/>
      <field name="ip.host" showname="Source or Destination Host: 127.0.0.1" hide="yes" size="4" pos="26" show="127.0.0.1" value="7f000001"/>
      <field name="ip.dst" showname="Destination: 127.0.0.1 (127.0.0.1)" size="4" pos="30" show="127.0.0.1" value="7f000001"/>
      <field name="ip.addr" showname="Source or Destination Address: 127.0.0.1 (127.0.0.1)" hide="yes" size="4" pos="30" show="127.0.0.1" value="7f000001"/>
      <field name="ip.dst_host" showname="Destination Host: 127.0.0.1" hide="yes" size="4" pos="30" show="127.0.0.1" value="7f000001"/>
      <field name="ip.host" showname="Source or Destination Host: 127.0.0.1" hide="yes" size="4" pos="30" show="127.0.0.1" value="7f000001"/>
    </proto>
    <proto name="tcp" showname="Transmission Control Protocol, Src Port: 37097 (37097), Dst Port: http (80), Seq: 487, Ack: 218, Len: 0" size="32" pos="34">
      <field name="tcp.srcport" showname="Source port: 37097 (37097)" size="2" pos="34" show="37097" value="90e9"/>
      <field name="tcp.dstport" showname="Destination port: http (80)" size="2" pos="36" show="80" value="0050"/>
      <field name="tcp.port" showname="Source or Destination Port: 37097" hide="yes" size="2" pos="34" show="37097" value="90e9"/>
      <field name="tcp.port" showname="Source or Destination Port: 80" hide="yes" size="2" pos="36" show="80" value="0050"/>
      <field name="tcp.stream" showname="Stream index: 5" size="0" pos="34" show="5"/>
      <field name="tcp.len" showname="TCP Segment Len: 0" hide="yes" size="1" pos="46" show="0" value="80"/>
      <field name="tcp.seq" showname="Sequence number: 487    (relative sequence number)" size="4" pos="38" show="487" value="88715de9"/>
      <field name="tcp.ack" showname="Acknowledgement number: 218    (relative ack number)" size="4" pos="42" show="218" value="0e2c83f3"/>
      <field name="tcp.hdr_len" showname="Header length: 32 bytes" size="1" pos="46" show="32" value="80"/>
      <field name="tcp.flags" showname="Flags: 0x10 (ACK)" size="2" pos="46" show="0x10" value="8010">
        <field name="tcp.flags.res" showname="000. .... .... = Reserved: Not set" size="1" pos="46" show="0" value="0" unmaskedvalue="80"/>
        <field name="tcp.flags.ns" showname="...0 .... .... = Nonce: Not set" size="1" pos="46" show="0" value="0" unmaskedvalue="80"/>
        <field name="tcp.flags.cwr" showname=".... 0... .... = Congestion Window Reduced (CWR): Not set" size="1" pos="47" show="0" value="0" unmaskedvalue="10"/>
        <field name="tcp.flags.ecn" showname=".... .0.. .... = ECN-Echo: Not set" size="1" pos="47" show="0" value="0" unmaskedvalue="10"/>
        <field name="tcp.flags.urg" showname=".... ..0. .... = Urgent: Not set" size="1" pos="47" show="0" value="0" unmaskedvalue="10"/>
        <field name="tcp.flags.ack" showname=".... ...1 .... = Acknowledgement: Set" size="1" pos="47" show="1" value="1" unmaskedvalue="10"/>
        <field name="tcp.flags.push" showname=".... .... 0... = Push: Not set" size="1" pos="47" show="0" value="0" unmaskedvalue="10"/>
        <field name="tcp.flags.reset" showname=".... .... .0.. = Reset: Not set" size="1" pos="47" show="0" value="0" unmaskedvalue="10"/>
        <field name="tcp.flags.syn" showname=".... .... ..0. = Syn: Not set" size="1" pos="47" show="0" value="0" unmaskedvalue="10"/>
        <field name="tcp.flags.fin" showname=".... .... ...0 = Fin: Not set" size="1" pos="47" show="0" value="0" unmaskedvalue="10"/>
      </field>
      <field name="tcp.window_size_value" showname="Window size value: 265" size="2" pos="48" show="265" value="0109"/>
      <field name="tcp.window_size" showname="Calculated window size: 33920" size="2" pos="48" show="33920" value="0109"/>
      <field name="tcp.window_size_scalefactor" showname="Window size scaling factor: 128" size="2" pos="48" show="128" value="0109"/>
      <field name="tcp.checksum" showname="Checksum: 0xfe28 [validation disabled]" size="2" pos="50" show="0xfe28" value="fe28">
        <field name="tcp.checksum_good" showname="Good Checksum: False" size="2" pos="50" show="0" value="fe28"/>
        <field name="tcp.checksum_bad" showname="Bad Checksum: False" size="2" pos="50" show="0" value="fe28"/>
      </field>
      <field name="tcp.options" showname="Options: (12 bytes)" size="12" pos="54" show="01:01:08:0a:00:14:23:75:00:14:23:75" value="0101080a0014237500142375">
        <field name="" show="No-Operation (NOP)" size="1" pos="54" value="01"/>
        <field name="" show="No-Operation (NOP)" size="1" pos="55" value="01"/>
        <field name="" show="Timestamps: TSval 1319797, TSecr 1319797" size="10" pos="56" value="080a0014237500142375">
          <field name="tcp.option_kind" showname="Kind: Timestamp (8)" size="1" pos="56" show="8" value="08"/>
          <field name="tcp.option_len" showname="Length: 10" size="1" pos="57" show="10" value="0a"/>
          <field name="tcp.options.timestamp.tsval" showname="Timestamp value: 1319797" size="4" pos="58" show="1319797" value="00142375"/>
          <field name="tcp.options.timestamp.tsecr" showname="Timestamp echo reply: 1319797" size="4" pos="62" show="1319797" value="00142375"/>
        </field>
      </field>
      <field name="" show="SEQ/ACK analysis" size="0" pos="34" value="">
        <field name="tcp.analysis.acks_frame" showname="This is an ACK to the segment in frame: 53" size="0" pos="34" show="53"/>
        <field name="tcp.analysis.ack_rtt" showname="The RTT to ACK the segment was: 0.000026000 seconds" size="0" pos="34" show="0.000026000"/>
      </field>
    </proto>
  </packet>
  <packet>
    <proto name="geninfo" pos="0" showname="General information" size="564">
      <field name="num" pos="0" show="63" showname="Number" value="3f" size="564"/>
      <field name="len" pos="0" show="564" showname="Frame Length" value="234" size="564"/>
      <field name="caplen" pos="0" show="564" showname="Captured Length" value="234" size="564"/>
      <field name="timestamp" pos="0" show="Apr 20, 2012 09:11:07.547701000 CEST" showname="Captured Time" value="1334905867.547701000" size="564"/>
    </proto>
    <proto name="frame" showname="Frame 63: 564 bytes on wire (4512 bits), 564 bytes captured (4512 bits)" size="564" pos="0">
      <field name="frame.time" showname="Arrival Time: Apr 20, 2012 09:11:07.547701000 CEST" size="0" pos="0" show="Apr 20, 2012 09:11:07.547701000"/>
      <field name="frame.time_epoch" showname="Epoch Time: 1334905867.547701000 seconds" size="0" pos="0" show="1334905867.547701000"/>
      <field name="frame.time_delta" showname="Time delta from previous captured frame: 0.000438000 seconds" size="0" pos="0" show="0.000438000"/>
      <field name="frame.time_delta_displayed" showname="Time delta from previous displayed frame: 0.000438000 seconds" size="0" pos="0" show="0.000438000"/>
      <field name="frame.time_relative" showname="Time since reference or first frame: 0.093507000 seconds" size="0" pos="0" show="0.093507000"/>
      <field name="frame.number" showname="Frame Number: 63" size="0" pos="0" show="63"/>
      <field name="frame.len" showname="Frame Length: 564 bytes (4512 bits)" size="0" pos="0" show="564"/>
      <field name="frame.cap_len" showname="Capture Length: 564 bytes (4512 bits)" size="0" pos="0" show="564"/>
      <field name="frame.marked" showname="Frame is marked: False" size="0" pos="0" show="0"/>
      <field name="frame.ignored" showname="Frame is ignored: False" size="0" pos="0" show="0"/>
      <field name="frame.protocols" showname="Protocols in frame: eth:ip:tcp:http" size="0" pos="0" show="eth:ip:tcp:http"/>
    </proto>
    <proto name="eth" showname="Ethernet II, Src: 00:00:00_00:00:00 (00:00:00:00:00:00), Dst: 00:00:00_00:00:00 (00:00:00:00:00:00)" size="14" pos="0">
      <field name="eth.dst" showname="Destination: 00:00:00_00:00:00 (00:00:00:00:00:00)" size="6" pos="0" show="00:00:00:00:00:00" value="000000000000">
        <field name="eth.addr" showname="Address: 00:00:00_00:00:00 (00:00:00:00:00:00)" size="6" pos="0" show="00:00:00:00:00:00" value="000000000000"/>
        <field name="eth.ig" showname=".... ...0 .... .... .... .... = IG bit: Individual address (unicast)" size="3" pos="0" show="0" value="0" unmaskedvalue="000000"/>
        <field name="eth.lg" showname=".... ..0. .... .... .... .... = LG bit: Globally unique address (factory default)" size="3" pos="0" show="0" value="0" unmaskedvalue="000000"/>
      </field>
      <field name="eth.src" showname="Source: 00:00:00_00:00:00 (00:00:00:00:00:00)" size="6" pos="6" show="00:00:00:00:00:00" value="000000000000">
        <field name="eth.addr" showname="Address: 00:00:00_00:00:00 (00:00:00:00:00:00)" size="6" pos="6" show="00:00:00:00:00:00" value="000000000000"/>
        <field name="eth.ig" showname=".... ...0 .... .... .... .... = IG bit: Individual address (unicast)" size="3" pos="6" show="0" value="0" unmaskedvalue="000000"/>
        <field name="eth.lg" showname=".... ..0. .... .... .... .... = LG bit: Globally unique address (factory default)" size="3" pos="6" show="0" value="0" unmaskedvalue="000000"/>
      </field>
      <field name="eth.type" showname="Type: IP (0x0800)" size="2" pos="12" show="0x0800" value="0800"/>
    </proto>
    <proto name="ip" showname="Internet Protocol Version 4, Src: 127.0.0.1 (127.0.0.1), Dst: 127.0.0.1 (127.0.0.1)" size="20" pos="14">
      <field name="ip.version" showname="Version: 4" size="1" pos="14" show="4" value="45"/>
      <field name="ip.hdr_len" showname="Header length: 20 bytes" size="1" pos="14" show="20" value="45"/>
      <field name="ip.dsfield" showname="Differentiated Services Field: 0x00 (DSCP 0x00: Default; ECN: 0x00: Not-ECT (Not ECN-Capable Transport))" size="1" pos="15" show="0" value="00">
        <field name="ip.dsfield.dscp" showname="0000 00.. = Differentiated Services Codepoint: Default (0x00)" size="1" pos="15" show="0x00" value="0" unmaskedvalue="00"/>
        <field name="ip.dsfield.ecn" showname=".... ..00 = Explicit Congestion Notification: Not-ECT (Not ECN-Capable Transport) (0x00)" size="1" pos="15" show="0x00" value="0" unmaskedvalue="00"/>
      </field>
      <field name="ip.len" showname="Total Length: 550" size="2" pos="16" show="550" value="0226"/>
      <field name="ip.id" showname="Identification: 0x7f60 (32608)" size="2" pos="18" show="0x7f60" value="7f60"/>
      <field name="ip.flags" showname="Flags: 0x02 (Don't Fragment)" size="1" pos="20" show="0x02" value="40">
        <field name="ip.flags.rb" showname="0... .... = Reserved bit: Not set" size="1" pos="20" show="0" value="40"/>
        <field name="ip.flags.df" showname=".1.. .... = Don't fragment: Set" size="1" pos="20" show="1" value="40"/>
        <field name="ip.flags.mf" showname="..0. .... = More fragments: Not set" size="1" pos="20" show="0" value="40"/>
      </field>
      <field name="ip.frag_offset" showname="Fragment offset: 0" size="2" pos="20" show="0" value="4000"/>
      <field name="ip.ttl" showname="Time to live: 64" size="1" pos="22" show="64" value="40"/>
      <field name="ip.proto" showname="Protocol: TCP (6)" size="1" pos="23" show="6" value="06"/>
      <field name="ip.checksum" showname="Header checksum: 0xbb6f [correct]" size="2" pos="24" show="0xbb6f" value="bb6f">
        <field name="ip.checksum_good" showname="Good: True" size="2" pos="24" show="1" value="bb6f"/>
        <field name="ip.checksum_bad" showname="Bad: False" size="2" pos="24" show="0" value="bb6f"/>
      </field>
      <field name="ip.src" showname="Source: 127.0.0.1 (127.0.0.1)" size="4" pos="26" show="127.0.0.1" value="7f000001"/>
      <field name="ip.addr" showname="Source or Destination Address: 127.0.0.1 (127.0.0.1)" hide="yes" size="4" pos="26" show="127.0.0.1" value="7f000001"/>
      <field name="ip.src_host" showname="Source Host: 127.0.0.1" hide="yes" size="4" pos="26" show="127.0.0.1" value="7f000001"/>
      <field name="ip.host" showname="Source or Destination Host: 127.0.0.1" hide="yes" size="4" pos="26" show="127.0.0.1" value="7f000001"/>
      <field name="ip.dst" showname="Destination: 127.0.0.1 (127.0.0.1)" size="4" pos="30" show="127.0.0.1" value="7f000001"/>
      <field name="ip.addr" showname="Source or Destination Address: 127.0.0.1 (127.0.0.1)" hide="yes" size="4" pos="30" show="127.0.0.1" value="7f000001"/>
      <field name="ip.dst_host" showname="Destination Host: 127.0.0.1" hide="yes" size="4" pos="30" show="127.0.0.1" value="7f000001"/>
      <field name="ip.host" showname="Source or Destination Host: 127.0.0.1" hide="yes" size="4" pos="30" show="127.0.0.1" value="7f000001"/>
    </proto>
    <proto name="tcp" showname="Transmission Control Protocol, Src Port: 37097 (37097), Dst Port: http (80), Seq: 487, Ack: 218, Len: 498" size="32" pos="34">
      <field name="tcp.srcport" showname="Source port: 37097 (37097)" size="2" pos="34" show="37097" value="90e9"/>
      <field name="tcp.dstport" showname="Destination port: http (80)" size="2" pos="36" show="80" value="0050"/>
      <field name="tcp.port" showname="Source or Destination Port: 37097" hide="yes" size="2" pos="34" show="37097" value="90e9"/>
      <field name="tcp.port" showname="Source or Destination Port: 80" hide="yes" size="2" pos="36" show="80" value="0050"/>
      <field name="tcp.stream" showname="Stream index: 5" size="0" pos="34" show="5"/>
      <field name="tcp.len" showname="TCP Segment Len: 498" hide="yes" size="1" pos="46" show="498" value="80"/>
      <field name="tcp.seq" showname="Sequence number: 487    (relative sequence number)" size="4" pos="38" show="487" value="88715de9"/>
      <field name="tcp.nxtseq" showname="Next sequence number: 985    (relative sequence number)" size="0" pos="34" show="985"/>
      <field name="tcp.ack" showname="Acknowledgement number: 218    (relative ack number)" size="4" pos="42" show="218" value="0e2c83f3"/>
      <field name="tcp.hdr_len" showname="Header length: 32 bytes" size="1" pos="46" show="32" value="80"/>
      <field name="tcp.flags" showname="Flags: 0x18 (PSH, ACK)" size="2" pos="46" show="0x18" value="8018">
        <field name="tcp.flags.res" showname="000. .... .... = Reserved: Not set" size="1" pos="46" show="0" value="0" unmaskedvalue="80"/>
        <field name="tcp.flags.ns" showname="...0 .... .... = Nonce: Not set" size="1" pos="46" show="0" value="0" unmaskedvalue="80"/>
        <field name="tcp.flags.cwr" showname=".... 0... .... = Congestion Window Reduced (CWR): Not set" size="1" pos="47" show="0" value="0" unmaskedvalue="18"/>
        <field name="tcp.flags.ecn" showname=".... .0.. .... = ECN-Echo: Not set" size="1" pos="47" show="0" value="0" unmaskedvalue="18"/>
        <field name="tcp.flags.urg" showname=".... ..0. .... = Urgent: Not set" size="1" pos="47" show="0" value="0" unmaskedvalue="18"/>
        <field name="tcp.flags.ack" showname=".... ...1 .... = Acknowledgement: Set" size="1" pos="47" show="1" value="1" unmaskedvalue="18"/>
        <field name="tcp.flags.push" showname=".... .... 1... = Push: Set" size="1" pos="47" show="1" value="1" unmaskedvalue="18"/>
        <field name="tcp.flags.reset" showname=".... .... .0.. = Reset: Not set" size="1" pos="47" show="0" value="0" unmaskedvalue="18"/>
        <field name="tcp.flags.syn" showname=".... .... ..0. = Syn: Not set" size="1" pos="47" show="0" value="0" unmaskedvalue="18"/>
        <field name="tcp.flags.fin" showname=".... .... ...0 = Fin: Not set" size="1" pos="47" show="0" value="0" unmaskedvalue="18"/>
      </field>
      <field name="tcp.window_size_value" showname="Window size value: 265" size="2" pos="48" show="265" value="0109"/>
      <field name="tcp.window_size" showname="Calculated window size: 33920" size="2" pos="48" show="33920" value="0109"/>
      <field name="tcp.window_size_scalefactor" showname="Window size scaling factor: 128" size="2" pos="48" show="128" value="0109"/>
      <field name="tcp.checksum" showname="Checksum: 0x001b [validation disabled]" size="2" pos="50" show="0x001b" value="001b">
        <field name="tcp.checksum_good" showname="Good Checksum: False" size="2" pos="50" show="0" value="001b"/>
        <field name="tcp.checksum_bad" showname="Bad Checksum: False" size="2" pos="50" show="0" value="001b"/>
      </field>
      <field name="tcp.options" showname="Options: (12 bytes)" size="12" pos="54" show="01:01:08:0a:00:14:23:75:00:14:23:75" value="0101080a0014237500142375">
        <field name="" show="No-Operation (NOP)" size="1" pos="54" value="01"/>
        <field name="" show="No-Operation (NOP)" size="1" pos="55" value="01"/>
        <field name="" show="Timestamps: TSval 1319797, TSecr 1319797" size="10" pos="56" value="080a0014237500142375">
          <field name="tcp.option_kind" showname="Kind: Timestamp (8)" size="1" pos="56" show="8" value="08"/>
          <field name="tcp.option_len" showname="Length: 10" size="1" pos="57" show="10" value="0a"/>
          <field name="tcp.options.timestamp.tsval" showname="Timestamp value: 1319797" size="4" pos="58" show="1319797" value="00142375"/>
          <field name="tcp.options.timestamp.tsecr" showname="Timestamp echo reply: 1319797" size="4" pos="62" show="1319797" value="00142375"/>
        </field>
      </field>
      <field name="" show="SEQ/ACK analysis" size="0" pos="34" value="">
        <field name="tcp.analysis.bytes_in_flight" showname="Bytes in flight: 498" size="0" pos="34" show="498"/>
      </field>
    </proto>
    <proto name="http" showname="Hypertext Transfer Protocol" size="498" pos="66">
      <field name="" show="GET /scripts/vendor/foundation/modernizr.foundation.js HTTP/1.1\r\n" size="65" pos="66" value="474554202f736372697074732f76656e646f722f666f756e646174696f6e2f6d6f6465726e697a722e666f756e646174696f6e2e6a7320485454502f312e310d0a">
        <proto name="expert" showname="Expert Info (Chat/Sequence): GET /scripts/vendor/foundation/modernizr.foundation.js HTTP/1.1\r\n" size="0" pos="0">
          <field name="expert.message" showname="Message: GET /scripts/vendor/foundation/modernizr.foundation.js HTTP/1.1\r\n" size="0" pos="0" show="GET /scripts/vendor/foundation/modernizr.foundation.js HTTP/1.1\\r\\n"/>
          <field name="expert.severity" showname="Severity level: Chat" size="0" pos="0" show="Chat"/>
          <field name="expert.group" showname="Group: Sequence" size="0" pos="0" show="Sequence"/>
        </proto>
        <field name="http.request.method" showname="Request Method: GET" size="3" pos="66" show="GET" value="474554"/>
        <field name="http.request.uri" showname="Request URI: /scripts/vendor/foundation/modernizr.foundation.js" size="50" pos="70" show="/scripts/vendor/foundation/modernizr.foundation.js" value="2f736372697074732f76656e646f722f666f756e646174696f6e2f6d6f6465726e697a722e666f756e646174696f6e2e6a73"/>
        <field name="http.request.version" showname="Request Version: HTTP/1.1" size="8" pos="121" show="HTTP/1.1" value="485454502f312e31"/>
      </field>
      <field name="http.host" showname="Host: glamster\r\n" size="16" pos="131" show="glamster" value="486f73743a20676c616d737465720d0a"/>
      <field name="http.connection" showname="Connection: keep-alive\r\n" size="24" pos="147" show="keep-alive" value="436f6e6e656374696f6e3a206b6565702d616c6976650d0a"/>
      <field name="http.user_agent" showname="User-Agent: Mozilla/5.0 (X11; Linux x86_64) AppleWebKit/535.19 (KHTML, like Gecko) Ubuntu/11.10 Chromium/18.0.1025.142 Chrome/18.0.1025.142 Safari/535.19\r\n" size="155" pos="171" show="Mozilla/5.0 (X11; Linux x86_64) AppleWebKit/535.19 (KHTML, like Gecko) Ubuntu/11.10 Chromium/18.0.1025.142 Chrome/18.0.1025.142 Safari/535.19" value="557365722d4167656e743a204d6f7a696c6c612f352e3020285831313b204c696e7578207838365f363429204170706c655765624b69742f3533352e313920284b48544d4c2c206c696b65204765636b6f29205562756e74752f31312e3130204368726f6d69756d2f31382e302e313032352e313432204368726f6d652f31382e302e313032352e313432205361666172692f3533352e31390d0a"/>
      <field name="http.accept" showname="Accept: */*\r\n" size="13" pos="326" show="*/*" value="4163636570743a202a2f2a0d0a"/>
      <field name="http.referer" showname="Referer: http://glamster/\r\n" size="27" pos="339" show="http://glamster/" value="526566657265723a20687474703a2f2f676c616d737465722f0d0a"/>
      <field name="http.accept_encoding" showname="Accept-Encoding: gzip,deflate,sdch\r\n" size="36" pos="366" show="gzip,deflate,sdch" value="4163636570742d456e636f64696e673a20677a69702c6465666c6174652c736463680d0a"/>
      <field name="http.accept_language" showname="Accept-Language: en-US,en;q=0.8\r\n" size="33" pos="402" show="en-US,en;q=0.8" value="4163636570742d4c616e67756167653a20656e2d55532c656e3b713d302e380d0a"/>
      <field name="" show="Accept-Charset: ISO-8859-1,utf-8;q=0.7,*;q=0.3\r\n" size="48" pos="435" value="4163636570742d436861727365743a2049534f2d383835392d312c7574662d383b713d302e372c2a3b713d302e330d0a"/>
      <field name="" show="If-None-Match: &quot;2205403352&quot;\r\n" size="29" pos="483" value="49662d4e6f6e652d4d617463683a202232323035343033333532220d0a"/>
      <field name="" show="If-Modified-Since: Wed, 21 Mar 2012 09:30:58 GMT\r\n" size="50" pos="512" value="49662d4d6f6469666965642d53696e63653a205765642c203231204d617220323031322030393a33303a353820474d540d0a"/>
      <field name="" show="\r\n" size="2" pos="562" value="0d0a"/>
      <field name="http.request.full_uri" showname="Full request URI: http://glamster/scripts/vendor/foundation/modernizr.foundation.js" size="0" pos="66" show="http://glamster/scripts/vendor/foundation/modernizr.foundation.js"/>
      <field name="http.request" showname="Request: True" hide="yes" size="0" pos="66" show="1"/>
    </proto>
  </packet>
  <packet>
    <proto name="geninfo" pos="0" showname="General information" size="283">
      <field name="num" pos="0" show="64" showname="Number" value="40" size="283"/>
      <field name="len" pos="0" show="283" showname="Frame Length" value="11b" size="283"/>
      <field name="caplen" pos="0" show="283" showname="Captured Length" value="11b" size="283"/>
      <field name="timestamp" pos="0" show="Apr 20, 2012 09:11:07.547822000 CEST" showname="Captured Time" value="1334905867.547822000" size="283"/>
    </proto>
    <proto name="frame" showname="Frame 64: 283 bytes on wire (2264 bits), 283 bytes captured (2264 bits)" size="283" pos="0">
      <field name="frame.time" showname="Arrival Time: Apr 20, 2012 09:11:07.547822000 CEST" size="0" pos="0" show="Apr 20, 2012 09:11:07.547822000"/>
      <field name="frame.time_epoch" showname="Epoch Time: 1334905867.547822000 seconds" size="0" pos="0" show="1334905867.547822000"/>
      <field name="frame.time_delta" showname="Time delta from previous captured frame: 0.000121000 seconds" size="0" pos="0" show="0.000121000"/>
      <field name="frame.time_delta_displayed" showname="Time delta from previous displayed frame: 0.000121000 seconds" size="0" pos="0" show="0.000121000"/>
      <field name="frame.time_relative" showname="Time since reference or first frame: 0.093628000 seconds" size="0" pos="0" show="0.093628000"/>
      <field name="frame.number" showname="Frame Number: 64" size="0" pos="0" show="64"/>
      <field name="frame.len" showname="Frame Length: 283 bytes (2264 bits)" size="0" pos="0" show="283"/>
      <field name="frame.cap_len" showname="Capture Length: 283 bytes (2264 bits)" size="0" pos="0" show="283"/>
      <field name="frame.marked" showname="Frame is marked: False" size="0" pos="0" show="0"/>
      <field name="frame.ignored" showname="Frame is ignored: False" size="0" pos="0" show="0"/>
      <field name="frame.protocols" showname="Protocols in frame: eth:ip:tcp" size="0" pos="0" show="eth:ip:tcp"/>
    </proto>
    <proto name="eth" showname="Ethernet II, Src: 00:00:00_00:00:00 (00:00:00:00:00:00), Dst: 00:00:00_00:00:00 (00:00:00:00:00:00)" size="14" pos="0">
      <field name="eth.dst" showname="Destination: 00:00:00_00:00:00 (00:00:00:00:00:00)" size="6" pos="0" show="00:00:00:00:00:00" value="000000000000">
        <field name="eth.addr" showname="Address: 00:00:00_00:00:00 (00:00:00:00:00:00)" size="6" pos="0" show="00:00:00:00:00:00" value="000000000000"/>
        <field name="eth.ig" showname=".... ...0 .... .... .... .... = IG bit: Individual address (unicast)" size="3" pos="0" show="0" value="0" unmaskedvalue="000000"/>
        <field name="eth.lg" showname=".... ..0. .... .... .... .... = LG bit: Globally unique address (factory default)" size="3" pos="0" show="0" value="0" unmaskedvalue="000000"/>
      </field>
      <field name="eth.src" showname="Source: 00:00:00_00:00:00 (00:00:00:00:00:00)" size="6" pos="6" show="00:00:00:00:00:00" value="000000000000">
        <field name="eth.addr" showname="Address: 00:00:00_00:00:00 (00:00:00:00:00:00)" size="6" pos="6" show="00:00:00:00:00:00" value="000000000000"/>
        <field name="eth.ig" showname=".... ...0 .... .... .... .... = IG bit: Individual address (unicast)" size="3" pos="6" show="0" value="0" unmaskedvalue="000000"/>
        <field name="eth.lg" showname=".... ..0. .... .... .... .... = LG bit: Globally unique address (factory default)" size="3" pos="6" show="0" value="0" unmaskedvalue="000000"/>
      </field>
      <field name="eth.type" showname="Type: IP (0x0800)" size="2" pos="12" show="0x0800" value="0800"/>
    </proto>
    <proto name="ip" showname="Internet Protocol Version 4, Src: 127.0.0.1 (127.0.0.1), Dst: 127.0.0.1 (127.0.0.1)" size="20" pos="14">
      <field name="ip.version" showname="Version: 4" size="1" pos="14" show="4" value="45"/>
      <field name="ip.hdr_len" showname="Header length: 20 bytes" size="1" pos="14" show="20" value="45"/>
      <field name="ip.dsfield" showname="Differentiated Services Field: 0x00 (DSCP 0x00: Default; ECN: 0x00: Not-ECT (Not ECN-Capable Transport))" size="1" pos="15" show="0" value="00">
        <field name="ip.dsfield.dscp" showname="0000 00.. = Differentiated Services Codepoint: Default (0x00)" size="1" pos="15" show="0x00" value="0" unmaskedvalue="00"/>
        <field name="ip.dsfield.ecn" showname=".... ..00 = Explicit Congestion Notification: Not-ECT (Not ECN-Capable Transport) (0x00)" size="1" pos="15" show="0x00" value="0" unmaskedvalue="00"/>
      </field>
      <field name="ip.len" showname="Total Length: 269" size="2" pos="16" show="269" value="010d"/>
      <field name="ip.id" showname="Identification: 0xa046 (41030)" size="2" pos="18" show="0xa046" value="a046"/>
      <field name="ip.flags" showname="Flags: 0x02 (Don't Fragment)" size="1" pos="20" show="0x02" value="40">
        <field name="ip.flags.rb" showname="0... .... = Reserved bit: Not set" size="1" pos="20" show="0" value="40"/>
        <field name="ip.flags.df" showname=".1.. .... = Don't fragment: Set" size="1" pos="20" show="1" value="40"/>
        <field name="ip.flags.mf" showname="..0. .... = More fragments: Not set" size="1" pos="20" show="0" value="40"/>
      </field>
      <field name="ip.frag_offset" showname="Fragment offset: 0" size="2" pos="20" show="0" value="4000"/>
      <field name="ip.ttl" showname="Time to live: 64" size="1" pos="22" show="64" value="40"/>
      <field name="ip.proto" showname="Protocol: TCP (6)" size="1" pos="23" show="6" value="06"/>
      <field name="ip.checksum" showname="Header checksum: 0x9ba2 [correct]" size="2" pos="24" show="0x9ba2" value="9ba2">
        <field name="ip.checksum_good" showname="Good: True" size="2" pos="24" show="1" value="9ba2"/>
        <field name="ip.checksum_bad" showname="Bad: False" size="2" pos="24" show="0" value="9ba2"/>
      </field>
      <field name="ip.src" showname="Source: 127.0.0.1 (127.0.0.1)" size="4" pos="26" show="127.0.0.1" value="7f000001"/>
      <field name="ip.addr" showname="Source or Destination Address: 127.0.0.1 (127.0.0.1)" hide="yes" size="4" pos="26" show="127.0.0.1" value="7f000001"/>
      <field name="ip.src_host" showname="Source Host: 127.0.0.1" hide="yes" size="4" pos="26" show="127.0.0.1" value="7f000001"/>
      <field name="ip.host" showname="Source or Destination Host: 127.0.0.1" hide="yes" size="4" pos="26" show="127.0.0.1" value="7f000001"/>
      <field name="ip.dst" showname="Destination: 127.0.0.1 (127.0.0.1)" size="4" pos="30" show="127.0.0.1" value="7f000001"/>
      <field name="ip.addr" showname="Source or Destination Address: 127.0.0.1 (127.0.0.1)" hide="yes" size="4" pos="30" show="127.0.0.1" value="7f000001"/>
      <field name="ip.dst_host" showname="Destination Host: 127.0.0.1" hide="yes" size="4" pos="30" show="127.0.0.1" value="7f000001"/>
      <field name="ip.host" showname="Source or Destination Host: 127.0.0.1" hide="yes" size="4" pos="30" show="127.0.0.1" value="7f000001"/>
    </proto>
    <proto name="tcp" showname="Transmission Control Protocol, Src Port: http (80), Dst Port: 37097 (37097), Seq: 218, Ack: 985, Len: 217" size="32" pos="34">
      <field name="tcp.srcport" showname="Source port: http (80)" size="2" pos="34" show="80" value="0050"/>
      <field name="tcp.dstport" showname="Destination port: 37097 (37097)" size="2" pos="36" show="37097" value="90e9"/>
      <field name="tcp.port" showname="Source or Destination Port: 80" hide="yes" size="2" pos="34" show="80" value="0050"/>
      <field name="tcp.port" showname="Source or Destination Port: 37097" hide="yes" size="2" pos="36" show="37097" value="90e9"/>
      <field name="tcp.stream" showname="Stream index: 5" size="0" pos="34" show="5"/>
      <field name="tcp.len" showname="TCP Segment Len: 217" hide="yes" size="1" pos="46" show="217" value="80"/>
      <field name="tcp.seq" showname="Sequence number: 218    (relative sequence number)" size="4" pos="38" show="218" value="0e2c83f3"/>
      <field name="tcp.nxtseq" showname="Next sequence number: 435    (relative sequence number)" size="0" pos="34" show="435"/>
      <field name="tcp.ack" showname="Acknowledgement number: 985    (relative ack number)" size="4" pos="42" show="985" value="88715fdb"/>
      <field name="tcp.hdr_len" showname="Header length: 32 bytes" size="1" pos="46" show="32" value="80"/>
      <field name="tcp.flags" showname="Flags: 0x18 (PSH, ACK)" size="2" pos="46" show="0x18" value="8018">
        <field name="tcp.flags.res" showname="000. .... .... = Reserved: Not set" size="1" pos="46" show="0" value="0" unmaskedvalue="80"/>
        <field name="tcp.flags.ns" showname="...0 .... .... = Nonce: Not set" size="1" pos="46" show="0" value="0" unmaskedvalue="80"/>
        <field name="tcp.flags.cwr" showname=".... 0... .... = Congestion Window Reduced (CWR): Not set" size="1" pos="47" show="0" value="0" unmaskedvalue="18"/>
        <field name="tcp.flags.ecn" showname=".... .0.. .... = ECN-Echo: Not set" size="1" pos="47" show="0" value="0" unmaskedvalue="18"/>
        <field name="tcp.flags.urg" showname=".... ..0. .... = Urgent: Not set" size="1" pos="47" show="0" value="0" unmaskedvalue="18"/>
        <field name="tcp.flags.ack" showname=".... ...1 .... = Acknowledgement: Set" size="1" pos="47" show="1" value="1" unmaskedvalue="18"/>
        <field name="tcp.flags.push" showname=".... .... 1... = Push: Set" size="1" pos="47" show="1" value="1" unmaskedvalue="18"/>
        <field name="tcp.flags.reset" showname=".... .... .0.. = Reset: Not set" size="1" pos="47" show="0" value="0" unmaskedvalue="18"/>
        <field name="tcp.flags.syn" showname=".... .... ..0. = Syn: Not set" size="1" pos="47" show="0" value="0" unmaskedvalue="18"/>
        <field name="tcp.flags.fin" showname=".... .... ...0 = Fin: Not set" size="1" pos="47" show="0" value="0" unmaskedvalue="18"/>
      </field>
      <field name="tcp.window_size_value" showname="Window size value: 273" size="2" pos="48" show="273" value="0111"/>
      <field name="tcp.window_size" showname="Calculated window size: 34944" size="2" pos="48" show="34944" value="0111"/>
      <field name="tcp.window_size_scalefactor" showname="Window size scaling factor: 128" size="2" pos="48" show="128" value="0111"/>
      <field name="tcp.checksum" showname="Checksum: 0xff01 [validation disabled]" size="2" pos="50" show="0xff01" value="ff01">
        <field name="tcp.checksum_good" showname="Good Checksum: False" size="2" pos="50" show="0" value="ff01"/>
        <field name="tcp.checksum_bad" showname="Bad Checksum: False" size="2" pos="50" show="0" value="ff01"/>
      </field>
      <field name="tcp.options" showname="Options: (12 bytes)" size="12" pos="54" show="01:01:08:0a:00:14:23:75:00:14:23:75" value="0101080a0014237500142375">
        <field name="" show="No-Operation (NOP)" size="1" pos="54" value="01"/>
        <field name="" show="No-Operation (NOP)" size="1" pos="55" value="01"/>
        <field name="" show="Timestamps: TSval 1319797, TSecr 1319797" size="10" pos="56" value="080a0014237500142375">
          <field name="tcp.option_kind" showname="Kind: Timestamp (8)" size="1" pos="56" show="8" value="08"/>
          <field name="tcp.option_len" showname="Length: 10" size="1" pos="57" show="10" value="0a"/>
          <field name="tcp.options.timestamp.tsval" showname="Timestamp value: 1319797" size="4" pos="58" show="1319797" value="00142375"/>
          <field name="tcp.options.timestamp.tsecr" showname="Timestamp echo reply: 1319797" size="4" pos="62" show="1319797" value="00142375"/>
        </field>
      </field>
      <field name="" show="SEQ/ACK analysis" size="0" pos="34" value="">
        <field name="tcp.analysis.acks_frame" showname="This is an ACK to the segment in frame: 63" size="0" pos="34" show="63"/>
        <field name="tcp.analysis.ack_rtt" showname="The RTT to ACK the segment was: 0.000121000 seconds" size="0" pos="34" show="0.000121000"/>
        <field name="tcp.analysis.bytes_in_flight" showname="Bytes in flight: 217" size="0" pos="34" show="217"/>
      </field>
      <field name="tcp.data" showname="TCP segment data (217 bytes)" size="217" pos="66" show="48:54:54:50:2f:31:2e:31:20:33:30:34:20:4e:6f:74:20:4d:6f:64:69:66:69:65:64:0d:0a:43:6f:6e:74:65:6e:74:2d:54:79:70:65:3a:20:61:70:70:6c:69:63:61:74:69:6f:6e:2f:6a:61:76:61:73:63:72:69:70:74:0d:0a:41:63:63:65:70:74:2d:52:61:6e:67:65:73:3a:20:62:79:74:65:73:0d:0a:45:54:61:67:3a:20:22:32:32:30:35:34:30:33:33:35:32:22:0d:0a:4c:61:73:74:2d:4d:6f:64:69:66:69:65:64:3a:20:57:65:64:2c:20:32:31:20:4d:61:72:20:32:30:31:32:20:30:39:3a:33:30:3a:35:38:20:47:4d:54:0d:0a:44:61:74:65:3a:20:46:72:69:2c:20:32:30:20:41:70:72:20:32:30:31:32:20:30:37:3a:31:31:3a:30:37:20:47:4d:54:0d:0a:53:65:72:76:65:72:3a:20:6c:69:67:68:74:74:70:64:2f:31:2e:34:2e:32:38:0d:0a:0d:0a" value="485454502f312e3120333034204e6f74204d6f6469666965640d0a436f6e74656e742d547970653a206170706c69636174696f6e2f6a6176617363726970740d0a4163636570742d52616e6765733a2062797465730d0a455461673a202232323035343033333532220d0a4c6173742d4d6f6469666965643a205765642c203231204d617220323031322030393a33303a353820474d540d0a446174653a204672692c2032302041707220323031322030373a31313a303720474d540d0a5365727665723a206c696768747470642f312e342e32380d0a0d0a"/>
    </proto>
  </packet>
  <packet>
    <proto name="geninfo" pos="0" showname="General information" size="563">
      <field name="num" pos="0" show="71" showname="Number" value="47" size="563"/>
      <field name="len" pos="0" show="563" showname="Frame Length" value="233" size="563"/>
      <field name="caplen" pos="0" show="563" showname="Captured Length" value="233" size="563"/>
      <field name="timestamp" pos="0" show="Apr 20, 2012 09:11:07.550678000 CEST" showname="Captured Time" value="1334905867.550678000" size="563"/>
    </proto>
    <proto name="frame" showname="Frame 71: 563 bytes on wire (4504 bits), 563 bytes captured (4504 bits)" size="563" pos="0">
      <field name="frame.time" showname="Arrival Time: Apr 20, 2012 09:11:07.550678000 CEST" size="0" pos="0" show="Apr 20, 2012 09:11:07.550678000"/>
      <field name="frame.time_epoch" showname="Epoch Time: 1334905867.550678000 seconds" size="0" pos="0" show="1334905867.550678000"/>
      <field name="frame.time_delta" showname="Time delta from previous captured frame: 0.000545000 seconds" size="0" pos="0" show="0.000545000"/>
      <field name="frame.time_delta_displayed" showname="Time delta from previous displayed frame: 0.000545000 seconds" size="0" pos="0" show="0.000545000"/>
      <field name="frame.time_relative" showname="Time since reference or first frame: 0.096484000 seconds" size="0" pos="0" show="0.096484000"/>
      <field name="frame.number" showname="Frame Number: 71" size="0" pos="0" show="71"/>
      <field name="frame.len" showname="Frame Length: 563 bytes (4504 bits)" size="0" pos="0" show="563"/>
      <field name="frame.cap_len" showname="Capture Length: 563 bytes (4504 bits)" size="0" pos="0" show="563"/>
      <field name="frame.marked" showname="Frame is marked: False" size="0" pos="0" show="0"/>
      <field name="frame.ignored" showname="Frame is ignored: False" size="0" pos="0" show="0"/>
      <field name="frame.protocols" showname="Protocols in frame: eth:ip:tcp:http" size="0" pos="0" show="eth:ip:tcp:http"/>
    </proto>
    <proto name="eth" showname="Ethernet II, Src: 00:00:00_00:00:00 (00:00:00:00:00:00), Dst: 00:00:00_00:00:00 (00:00:00:00:00:00)" size="14" pos="0">
      <field name="eth.dst" showname="Destination: 00:00:00_00:00:00 (00:00:00:00:00:00)" size="6" pos="0" show="00:00:00:00:00:00" value="000000000000">
        <field name="eth.addr" showname="Address: 00:00:00_00:00:00 (00:00:00:00:00:00)" size="6" pos="0" show="00:00:00:00:00:00" value="000000000000"/>
        <field name="eth.ig" showname=".... ...0 .... .... .... .... = IG bit: Individual address (unicast)" size="3" pos="0" show="0" value="0" unmaskedvalue="000000"/>
        <field name="eth.lg" showname=".... ..0. .... .... .... .... = LG bit: Globally unique address (factory default)" size="3" pos="0" show="0" value="0" unmaskedvalue="000000"/>
      </field>
      <field name="eth.src" showname="Source: 00:00:00_00:00:00 (00:00:00:00:00:00)" size="6" pos="6" show="00:00:00:00:00:00" value="000000000000">
        <field name="eth.addr" showname="Address: 00:00:00_00:00:00 (00:00:00:00:00:00)" size="6" pos="6" show="00:00:00:00:00:00" value="000000000000"/>
        <field name="eth.ig" showname=".... ...0 .... .... .... .... = IG bit: Individual address (unicast)" size="3" pos="6" show="0" value="0" unmaskedvalue="000000"/>
        <field name="eth.lg" showname=".... ..0. .... .... .... .... = LG bit: Globally unique address (factory default)" size="3" pos="6" show="0" value="0" unmaskedvalue="000000"/>
      </field>
      <field name="eth.type" showname="Type: IP (0x0800)" size="2" pos="12" show="0x0800" value="0800"/>
    </proto>
    <proto name="ip" showname="Internet Protocol Version 4, Src: 127.0.0.1 (127.0.0.1), Dst: 127.0.0.1 (127.0.0.1)" size="20" pos="14">
      <field name="ip.version" showname="Version: 4" size="1" pos="14" show="4" value="45"/>
      <field name="ip.hdr_len" showname="Header length: 20 bytes" size="1" pos="14" show="20" value="45"/>
      <field name="ip.dsfield" showname="Differentiated Services Field: 0x00 (DSCP 0x00: Default; ECN: 0x00: Not-ECT (Not ECN-Capable Transport))" size="1" pos="15" show="0" value="00">
        <field name="ip.dsfield.dscp" showname="0000 00.. = Differentiated Services Codepoint: Default (0x00)" size="1" pos="15" show="0x00" value="0" unmaskedvalue="00"/>
        <field name="ip.dsfield.ecn" showname=".... ..00 = Explicit Congestion Notification: Not-ECT (Not ECN-Capable Transport) (0x00)" size="1" pos="15" show="0x00" value="0" unmaskedvalue="00"/>
      </field>
      <field name="ip.len" showname="Total Length: 549" size="2" pos="16" show="549" value="0225"/>
      <field name="ip.id" showname="Identification: 0x7f61 (32609)" size="2" pos="18" show="0x7f61" value="7f61"/>
      <field name="ip.flags" showname="Flags: 0x02 (Don't Fragment)" size="1" pos="20" show="0x02" value="40">
        <field name="ip.flags.rb" showname="0... .... = Reserved bit: Not set" size="1" pos="20" show="0" value="40"/>
        <field name="ip.flags.df" showname=".1.. .... = Don't fragment: Set" size="1" pos="20" show="1" value="40"/>
        <field name="ip.flags.mf" showname="..0. .... = More fragments: Not set" size="1" pos="20" show="0" value="40"/>
      </field>
      <field name="ip.frag_offset" showname="Fragment offset: 0" size="2" pos="20" show="0" value="4000"/>
      <field name="ip.ttl" showname="Time to live: 64" size="1" pos="22" show="64" value="40"/>
      <field name="ip.proto" showname="Protocol: TCP (6)" size="1" pos="23" show="6" value="06"/>
      <field name="ip.checksum" showname="Header checksum: 0xbb6f [correct]" size="2" pos="24" show="0xbb6f" value="bb6f">
        <field name="ip.checksum_good" showname="Good: True" size="2" pos="24" show="1" value="bb6f"/>
        <field name="ip.checksum_bad" showname="Bad: False" size="2" pos="24" show="0" value="bb6f"/>
      </field>
      <field name="ip.src" showname="Source: 127.0.0.1 (127.0.0.1)" size="4" pos="26" show="127.0.0.1" value="7f000001"/>
      <field name="ip.addr" showname="Source or Destination Address: 127.0.0.1 (127.0.0.1)" hide="yes" size="4" pos="26" show="127.0.0.1" value="7f000001"/>
      <field name="ip.src_host" showname="Source Host: 127.0.0.1" hide="yes" size="4" pos="26" show="127.0.0.1" value="7f000001"/>
      <field name="ip.host" showname="Source or Destination Host: 127.0.0.1" hide="yes" size="4" pos="26" show="127.0.0.1" value="7f000001"/>
      <field name="ip.dst" showname="Destination: 127.0.0.1 (127.0.0.1)" size="4" pos="30" show="127.0.0.1" value="7f000001"/>
      <field name="ip.addr" showname="Source or Destination Address: 127.0.0.1 (127.0.0.1)" hide="yes" size="4" pos="30" show="127.0.0.1" value="7f000001"/>
      <field name="ip.dst_host" showname="Destination Host: 127.0.0.1" hide="yes" size="4" pos="30" show="127.0.0.1" value="7f000001"/>
      <field name="ip.host" showname="Source or Destination Host: 127.0.0.1" hide="yes" size="4" pos="30" show="127.0.0.1" value="7f000001"/>
    </proto>
    <proto name="tcp" showname="Transmission Control Protocol, Src Port: 37097 (37097), Dst Port: http (80), Seq: 985, Ack: 435, Len: 497" size="32" pos="34">
      <field name="tcp.srcport" showname="Source port: 37097 (37097)" size="2" pos="34" show="37097" value="90e9"/>
      <field name="tcp.dstport" showname="Destination port: http (80)" size="2" pos="36" show="80" value="0050"/>
      <field name="tcp.port" showname="Source or Destination Port: 37097" hide="yes" size="2" pos="34" show="37097" value="90e9"/>
      <field name="tcp.port" showname="Source or Destination Port: 80" hide="yes" size="2" pos="36" show="80" value="0050"/>
      <field name="tcp.stream" showname="Stream index: 5" size="0" pos="34" show="5"/>
      <field name="tcp.len" showname="TCP Segment Len: 497" hide="yes" size="1" pos="46" show="497" value="80"/>
      <field name="tcp.seq" showname="Sequence number: 985    (relative sequence number)" size="4" pos="38" show="985" value="88715fdb"/>
      <field name="tcp.nxtseq" showname="Next sequence number: 1482    (relative sequence number)" size="0" pos="34" show="1482"/>
      <field name="tcp.ack" showname="Acknowledgement number: 435    (relative ack number)" size="4" pos="42" show="435" value="0e2c84cc"/>
      <field name="tcp.hdr_len" showname="Header length: 32 bytes" size="1" pos="46" show="32" value="80"/>
      <field name="tcp.flags" showname="Flags: 0x18 (PSH, ACK)" size="2" pos="46" show="0x18" value="8018">
        <field name="tcp.flags.res" showname="000. .... .... = Reserved: Not set" size="1" pos="46" show="0" value="0" unmaskedvalue="80"/>
        <field name="tcp.flags.ns" showname="...0 .... .... = Nonce: Not set" size="1" pos="46" show="0" value="0" unmaskedvalue="80"/>
        <field name="tcp.flags.cwr" showname=".... 0... .... = Congestion Window Reduced (CWR): Not set" size="1" pos="47" show="0" value="0" unmaskedvalue="18"/>
        <field name="tcp.flags.ecn" showname=".... .0.. .... = ECN-Echo: Not set" size="1" pos="47" show="0" value="0" unmaskedvalue="18"/>
        <field name="tcp.flags.urg" showname=".... ..0. .... = Urgent: Not set" size="1" pos="47" show="0" value="0" unmaskedvalue="18"/>
        <field name="tcp.flags.ack" showname=".... ...1 .... = Acknowledgement: Set" size="1" pos="47" show="1" value="1" unmaskedvalue="18"/>
        <field name="tcp.flags.push" showname=".... .... 1... = Push: Set" size="1" pos="47" show="1" value="1" unmaskedvalue="18"/>
        <field name="tcp.flags.reset" showname=".... .... .0.. = Reset: Not set" size="1" pos="47" show="0" value="0" unmaskedvalue="18"/>
        <field name="tcp.flags.syn" showname=".... .... ..0. = Syn: Not set" size="1" pos="47" show="0" value="0" unmaskedvalue="18"/>
        <field name="tcp.flags.fin" showname=".... .... ...0 = Fin: Not set" size="1" pos="47" show="0" value="0" unmaskedvalue="18"/>
      </field>
      <field name="tcp.window_size_value" showname="Window size value: 273" size="2" pos="48" show="273" value="0111"/>
      <field name="tcp.window_size" showname="Calculated window size: 34944" size="2" pos="48" show="34944" value="0111"/>
      <field name="tcp.window_size_scalefactor" showname="Window size scaling factor: 128" size="2" pos="48" show="128" value="0111"/>
      <field name="tcp.checksum" showname="Checksum: 0x001a [validation disabled]" size="2" pos="50" show="0x001a" value="001a">
        <field name="tcp.checksum_good" showname="Good Checksum: False" size="2" pos="50" show="0" value="001a"/>
        <field name="tcp.checksum_bad" showname="Bad Checksum: False" size="2" pos="50" show="0" value="001a"/>
      </field>
      <field name="tcp.options" showname="Options: (12 bytes)" size="12" pos="54" show="01:01:08:0a:00:14:23:76:00:14:23:75" value="0101080a0014237600142375">
        <field name="" show="No-Operation (NOP)" size="1" pos="54" value="01"/>
        <field name="" show="No-Operation (NOP)" size="1" pos="55" value="01"/>
        <field name="" show="Timestamps: TSval 1319798, TSecr 1319797" size="10" pos="56" value="080a0014237600142375">
          <field name="tcp.option_kind" showname="Kind: Timestamp (8)" size="1" pos="56" show="8" value="08"/>
          <field name="tcp.option_len" showname="Length: 10" size="1" pos="57" show="10" value="0a"/>
          <field name="tcp.options.timestamp.tsval" showname="Timestamp value: 1319798" size="4" pos="58" show="1319798" value="00142376"/>
          <field name="tcp.options.timestamp.tsecr" showname="Timestamp echo reply: 1319797" size="4" pos="62" show="1319797" value="00142375"/>
        </field>
      </field>
      <field name="" show="SEQ/ACK analysis" size="0" pos="34" value="">
        <field name="tcp.analysis.acks_frame" showname="This is an ACK to the segment in frame: 64" size="0" pos="34" show="64"/>
        <field name="tcp.analysis.ack_rtt" showname="The RTT to ACK the segment was: 0.002856000 seconds" size="0" pos="34" show="0.002856000"/>
        <field name="tcp.analysis.bytes_in_flight" showname="Bytes in flight: 497" size="0" pos="34" show="497"/>
      </field>
    </proto>
    <proto name="http" showname="Hypertext Transfer Protocol" size="497" pos="66">
      <field name="" show="GET /scripts/vendor/puppeteer/puppeteer.urlHandler.js HTTP/1.1\r\n" size="64" pos="66" value="474554202f736372697074732f76656e646f722f7075707065746565722f7075707065746565722e75726c48616e646c65722e6a7320485454502f312e310d0a">
        <proto name="expert" showname="Expert Info (Chat/Sequence): GET /scripts/vendor/puppeteer/puppeteer.urlHandler.js HTTP/1.1\r\n" size="0" pos="0">
          <field name="expert.message" showname="Message: GET /scripts/vendor/puppeteer/puppeteer.urlHandler.js HTTP/1.1\r\n" size="0" pos="0" show="GET /scripts/vendor/puppeteer/puppeteer.urlHandler.js HTTP/1.1\\r\\n"/>
          <field name="expert.severity" showname="Severity level: Chat" size="0" pos="0" show="Chat"/>
          <field name="expert.group" showname="Group: Sequence" size="0" pos="0" show="Sequence"/>
        </proto>
        <field name="http.request.method" showname="Request Method: GET" size="3" pos="66" show="GET" value="474554"/>
        <field name="http.request.uri" showname="Request URI: /scripts/vendor/puppeteer/puppeteer.urlHandler.js" size="49" pos="70" show="/scripts/vendor/puppeteer/puppeteer.urlHandler.js" value="2f736372697074732f76656e646f722f7075707065746565722f7075707065746565722e75726c48616e646c65722e6a73"/>
        <field name="http.request.version" showname="Request Version: HTTP/1.1" size="8" pos="120" show="HTTP/1.1" value="485454502f312e31"/>
      </field>
      <field name="http.host" showname="Host: glamster\r\n" size="16" pos="130" show="glamster" value="486f73743a20676c616d737465720d0a"/>
      <field name="http.connection" showname="Connection: keep-alive\r\n" size="24" pos="146" show="keep-alive" value="436f6e6e656374696f6e3a206b6565702d616c6976650d0a"/>
      <field name="http.user_agent" showname="User-Agent: Mozilla/5.0 (X11; Linux x86_64) AppleWebKit/535.19 (KHTML, like Gecko) Ubuntu/11.10 Chromium/18.0.1025.142 Chrome/18.0.1025.142 Safari/535.19\r\n" size="155" pos="170" show="Mozilla/5.0 (X11; Linux x86_64) AppleWebKit/535.19 (KHTML, like Gecko) Ubuntu/11.10 Chromium/18.0.1025.142 Chrome/18.0.1025.142 Safari/535.19" value="557365722d4167656e743a204d6f7a696c6c612f352e3020285831313b204c696e7578207838365f363429204170706c655765624b69742f3533352e313920284b48544d4c2c206c696b65204765636b6f29205562756e74752f31312e3130204368726f6d69756d2f31382e302e313032352e313432204368726f6d652f31382e302e313032352e313432205361666172692f3533352e31390d0a"/>
      <field name="http.accept" showname="Accept: */*\r\n" size="13" pos="325" show="*/*" value="4163636570743a202a2f2a0d0a"/>
      <field name="http.referer" showname="Referer: http://glamster/\r\n" size="27" pos="338" show="http://glamster/" value="526566657265723a20687474703a2f2f676c616d737465722f0d0a"/>
      <field name="http.accept_encoding" showname="Accept-Encoding: gzip,deflate,sdch\r\n" size="36" pos="365" show="gzip,deflate,sdch" value="4163636570742d456e636f64696e673a20677a69702c6465666c6174652c736463680d0a"/>
      <field name="http.accept_language" showname="Accept-Language: en-US,en;q=0.8\r\n" size="33" pos="401" show="en-US,en;q=0.8" value="4163636570742d4c616e67756167653a20656e2d55532c656e3b713d302e380d0a"/>
      <field name="" show="Accept-Charset: ISO-8859-1,utf-8;q=0.7,*;q=0.3\r\n" size="48" pos="434" value="4163636570742d436861727365743a2049534f2d383835392d312c7574662d383b713d302e372c2a3b713d302e330d0a"/>
      <field name="" show="If-None-Match: &quot;2929187553&quot;\r\n" size="29" pos="482" value="49662d4e6f6e652d4d617463683a202232393239313837353533220d0a"/>
      <field name="" show="If-Modified-Since: Tue, 27 Mar 2012 06:32:07 GMT\r\n" size="50" pos="511" value="49662d4d6f6469666965642d53696e63653a205475652c203237204d617220323031322030363a33323a303720474d540d0a"/>
      <field name="" show="\r\n" size="2" pos="561" value="0d0a"/>
      <field name="http.request.full_uri" showname="Full request URI: http://glamster/scripts/vendor/puppeteer/puppeteer.urlHandler.js" size="0" pos="66" show="http://glamster/scripts/vendor/puppeteer/puppeteer.urlHandler.js"/>
      <field name="http.request" showname="Request: True" hide="yes" size="0" pos="66" show="1"/>
    </proto>
  </packet>
  <packet>
    <proto name="geninfo" pos="0" showname="General information" size="283">
      <field name="num" pos="0" show="72" showname="Number" value="48" size="283"/>
      <field name="len" pos="0" show="283" showname="Frame Length" value="11b" size="283"/>
      <field name="caplen" pos="0" show="283" showname="Captured Length" value="11b" size="283"/>
      <field name="timestamp" pos="0" show="Apr 20, 2012 09:11:07.550787000 CEST" showname="Captured Time" value="1334905867.550787000" size="283"/>
    </proto>
    <proto name="frame" showname="Frame 72: 283 bytes on wire (2264 bits), 283 bytes captured (2264 bits)" size="283" pos="0">
      <field name="frame.time" showname="Arrival Time: Apr 20, 2012 09:11:07.550787000 CEST" size="0" pos="0" show="Apr 20, 2012 09:11:07.550787000"/>
      <field name="frame.time_epoch" showname="Epoch Time: 1334905867.550787000 seconds" size="0" pos="0" show="1334905867.550787000"/>
      <field name="frame.time_delta" showname="Time delta from previous captured frame: 0.000109000 seconds" size="0" pos="0" show="0.000109000"/>
      <field name="frame.time_delta_displayed" showname="Time delta from previous displayed frame: 0.000109000 seconds" size="0" pos="0" show="0.000109000"/>
      <field name="frame.time_relative" showname="Time since reference or first frame: 0.096593000 seconds" size="0" pos="0" show="0.096593000"/>
      <field name="frame.number" showname="Frame Number: 72" size="0" pos="0" show="72"/>
      <field name="frame.len" showname="Frame Length: 283 bytes (2264 bits)" size="0" pos="0" show="283"/>
      <field name="frame.cap_len" showname="Capture Length: 283 bytes (2264 bits)" size="0" pos="0" show="283"/>
      <field name="frame.marked" showname="Frame is marked: False" size="0" pos="0" show="0"/>
      <field name="frame.ignored" showname="Frame is ignored: False" size="0" pos="0" show="0"/>
      <field name="frame.protocols" showname="Protocols in frame: eth:ip:tcp" size="0" pos="0" show="eth:ip:tcp"/>
    </proto>
    <proto name="eth" showname="Ethernet II, Src: 00:00:00_00:00:00 (00:00:00:00:00:00), Dst: 00:00:00_00:00:00 (00:00:00:00:00:00)" size="14" pos="0">
      <field name="eth.dst" showname="Destination: 00:00:00_00:00:00 (00:00:00:00:00:00)" size="6" pos="0" show="00:00:00:00:00:00" value="000000000000">
        <field name="eth.addr" showname="Address: 00:00:00_00:00:00 (00:00:00:00:00:00)" size="6" pos="0" show="00:00:00:00:00:00" value="000000000000"/>
        <field name="eth.ig" showname=".... ...0 .... .... .... .... = IG bit: Individual address (unicast)" size="3" pos="0" show="0" value="0" unmaskedvalue="000000"/>
        <field name="eth.lg" showname=".... ..0. .... .... .... .... = LG bit: Globally unique address (factory default)" size="3" pos="0" show="0" value="0" unmaskedvalue="000000"/>
      </field>
      <field name="eth.src" showname="Source: 00:00:00_00:00:00 (00:00:00:00:00:00)" size="6" pos="6" show="00:00:00:00:00:00" value="000000000000">
        <field name="eth.addr" showname="Address: 00:00:00_00:00:00 (00:00:00:00:00:00)" size="6" pos="6" show="00:00:00:00:00:00" value="000000000000"/>
        <field name="eth.ig" showname=".... ...0 .... .... .... .... = IG bit: Individual address (unicast)" size="3" pos="6" show="0" value="0" unmaskedvalue="000000"/>
        <field name="eth.lg" showname=".... ..0. .... .... .... .... = LG bit: Globally unique address (factory default)" size="3" pos="6" show="0" value="0" unmaskedvalue="000000"/>
      </field>
      <field name="eth.type" showname="Type: IP (0x0800)" size="2" pos="12" show="0x0800" value="0800"/>
    </proto>
    <proto name="ip" showname="Internet Protocol Version 4, Src: 127.0.0.1 (127.0.0.1), Dst: 127.0.0.1 (127.0.0.1)" size="20" pos="14">
      <field name="ip.version" showname="Version: 4" size="1" pos="14" show="4" value="45"/>
      <field name="ip.hdr_len" showname="Header length: 20 bytes" size="1" pos="14" show="20" value="45"/>
      <field name="ip.dsfield" showname="Differentiated Services Field: 0x00 (DSCP 0x00: Default; ECN: 0x00: Not-ECT (Not ECN-Capable Transport))" size="1" pos="15" show="0" value="00">
        <field name="ip.dsfield.dscp" showname="0000 00.. = Differentiated Services Codepoint: Default (0x00)" size="1" pos="15" show="0x00" value="0" unmaskedvalue="00"/>
        <field name="ip.dsfield.ecn" showname=".... ..00 = Explicit Congestion Notification: Not-ECT (Not ECN-Capable Transport) (0x00)" size="1" pos="15" show="0x00" value="0" unmaskedvalue="00"/>
      </field>
      <field name="ip.len" showname="Total Length: 269" size="2" pos="16" show="269" value="010d"/>
      <field name="ip.id" showname="Identification: 0xa047 (41031)" size="2" pos="18" show="0xa047" value="a047"/>
      <field name="ip.flags" showname="Flags: 0x02 (Don't Fragment)" size="1" pos="20" show="0x02" value="40">
        <field name="ip.flags.rb" showname="0... .... = Reserved bit: Not set" size="1" pos="20" show="0" value="40"/>
        <field name="ip.flags.df" showname=".1.. .... = Don't fragment: Set" size="1" pos="20" show="1" value="40"/>
        <field name="ip.flags.mf" showname="..0. .... = More fragments: Not set" size="1" pos="20" show="0" value="40"/>
      </field>
      <field name="ip.frag_offset" showname="Fragment offset: 0" size="2" pos="20" show="0" value="4000"/>
      <field name="ip.ttl" showname="Time to live: 64" size="1" pos="22" show="64" value="40"/>
      <field name="ip.proto" showname="Protocol: TCP (6)" size="1" pos="23" show="6" value="06"/>
      <field name="ip.checksum" showname="Header checksum: 0x9ba1 [correct]" size="2" pos="24" show="0x9ba1" value="9ba1">
        <field name="ip.checksum_good" showname="Good: True" size="2" pos="24" show="1" value="9ba1"/>
        <field name="ip.checksum_bad" showname="Bad: False" size="2" pos="24" show="0" value="9ba1"/>
      </field>
      <field name="ip.src" showname="Source: 127.0.0.1 (127.0.0.1)" size="4" pos="26" show="127.0.0.1" value="7f000001"/>
      <field name="ip.addr" showname="Source or Destination Address: 127.0.0.1 (127.0.0.1)" hide="yes" size="4" pos="26" show="127.0.0.1" value="7f000001"/>
      <field name="ip.src_host" showname="Source Host: 127.0.0.1" hide="yes" size="4" pos="26" show="127.0.0.1" value="7f000001"/>
      <field name="ip.host" showname="Source or Destination Host: 127.0.0.1" hide="yes" size="4" pos="26" show="127.0.0.1" value="7f000001"/>
      <field name="ip.dst" showname="Destination: 127.0.0.1 (127.0.0.1)" size="4" pos="30" show="127.0.0.1" value="7f000001"/>
      <field name="ip.addr" showname="Source or Destination Address: 127.0.0.1 (127.0.0.1)" hide="yes" size="4" pos="30" show="127.0.0.1" value="7f000001"/>
      <field name="ip.dst_host" showname="Destination Host: 127.0.0.1" hide="yes" size="4" pos="30" show="127.0.0.1" value="7f000001"/>
      <field name="ip.host" showname="Source or Destination Host: 127.0.0.1" hide="yes" size="4" pos="30" show="127.0.0.1" value="7f000001"/>
    </proto>
    <proto name="tcp" showname="Transmission Control Protocol, Src Port: http (80), Dst Port: 37097 (37097), Seq: 435, Ack: 1482, Len: 217" size="32" pos="34">
      <field name="tcp.srcport" showname="Source port: http (80)" size="2" pos="34" show="80" value="0050"/>
      <field name="tcp.dstport" showname="Destination port: 37097 (37097)" size="2" pos="36" show="37097" value="90e9"/>
      <field name="tcp.port" showname="Source or Destination Port: 80" hide="yes" size="2" pos="34" show="80" value="0050"/>
      <field name="tcp.port" showname="Source or Destination Port: 37097" hide="yes" size="2" pos="36" show="37097" value="90e9"/>
      <field name="tcp.stream" showname="Stream index: 5" size="0" pos="34" show="5"/>
      <field name="tcp.len" showname="TCP Segment Len: 217" hide="yes" size="1" pos="46" show="217" value="80"/>
      <field name="tcp.seq" showname="Sequence number: 435    (relative sequence number)" size="4" pos="38" show="435" value="0e2c84cc"/>
      <field name="tcp.nxtseq" showname="Next sequence number: 652    (relative sequence number)" size="0" pos="34" show="652"/>
      <field name="tcp.ack" showname="Acknowledgement number: 1482    (relative ack number)" size="4" pos="42" show="1482" value="887161cc"/>
      <field name="tcp.hdr_len" showname="Header length: 32 bytes" size="1" pos="46" show="32" value="80"/>
      <field name="tcp.flags" showname="Flags: 0x18 (PSH, ACK)" size="2" pos="46" show="0x18" value="8018">
        <field name="tcp.flags.res" showname="000. .... .... = Reserved: Not set" size="1" pos="46" show="0" value="0" unmaskedvalue="80"/>
        <field name="tcp.flags.ns" showname="...0 .... .... = Nonce: Not set" size="1" pos="46" show="0" value="0" unmaskedvalue="80"/>
        <field name="tcp.flags.cwr" showname=".... 0... .... = Congestion Window Reduced (CWR): Not set" size="1" pos="47" show="0" value="0" unmaskedvalue="18"/>
        <field name="tcp.flags.ecn" showname=".... .0.. .... = ECN-Echo: Not set" size="1" pos="47" show="0" value="0" unmaskedvalue="18"/>
        <field name="tcp.flags.urg" showname=".... ..0. .... = Urgent: Not set" size="1" pos="47" show="0" value="0" unmaskedvalue="18"/>
        <field name="tcp.flags.ack" showname=".... ...1 .... = Acknowledgement: Set" size="1" pos="47" show="1" value="1" unmaskedvalue="18"/>
        <field name="tcp.flags.push" showname=".... .... 1... = Push: Set" size="1" pos="47" show="1" value="1" unmaskedvalue="18"/>
        <field name="tcp.flags.reset" showname=".... .... .0.. = Reset: Not set" size="1" pos="47" show="0" value="0" unmaskedvalue="18"/>
        <field name="tcp.flags.syn" showname=".... .... ..0. = Syn: Not set" size="1" pos="47" show="0" value="0" unmaskedvalue="18"/>
        <field name="tcp.flags.fin" showname=".... .... ...0 = Fin: Not set" size="1" pos="47" show="0" value="0" unmaskedvalue="18"/>
      </field>
      <field name="tcp.window_size_value" showname="Window size value: 282" size="2" pos="48" show="282" value="011a"/>
      <field name="tcp.window_size" showname="Calculated window size: 36096" size="2" pos="48" show="36096" value="011a"/>
      <field name="tcp.window_size_scalefactor" showname="Window size scaling factor: 128" size="2" pos="48" show="128" value="011a"/>
      <field name="tcp.checksum" showname="Checksum: 0xff01 [validation disabled]" size="2" pos="50" show="0xff01" value="ff01">
        <field name="tcp.checksum_good" showname="Good Checksum: False" size="2" pos="50" show="0" value="ff01"/>
        <field name="tcp.checksum_bad" showname="Bad Checksum: False" size="2" pos="50" show="0" value="ff01"/>
      </field>
      <field name="tcp.options" showname="Options: (12 bytes)" size="12" pos="54" show="01:01:08:0a:00:14:23:76:00:14:23:76" value="0101080a0014237600142376">
        <field name="" show="No-Operation (NOP)" size="1" pos="54" value="01"/>
        <field name="" show="No-Operation (NOP)" size="1" pos="55" value="01"/>
        <field name="" show="Timestamps: TSval 1319798, TSecr 1319798" size="10" pos="56" value="080a0014237600142376">
          <field name="tcp.option_kind" showname="Kind: Timestamp (8)" size="1" pos="56" show="8" value="08"/>
          <field name="tcp.option_len" showname="Length: 10" size="1" pos="57" show="10" value="0a"/>
          <field name="tcp.options.timestamp.tsval" showname="Timestamp value: 1319798" size="4" pos="58" show="1319798" value="00142376"/>
          <field name="tcp.options.timestamp.tsecr" showname="Timestamp echo reply: 1319798" size="4" pos="62" show="1319798" value="00142376"/>
        </field>
      </field>
      <field name="" show="SEQ/ACK analysis" size="0" pos="34" value="">
        <field name="tcp.analysis.acks_frame" showname="This is an ACK to the segment in frame: 71" size="0" pos="34" show="71"/>
        <field name="tcp.analysis.ack_rtt" showname="The RTT to ACK the segment was: 0.000109000 seconds" size="0" pos="34" show="0.000109000"/>
        <field name="tcp.analysis.bytes_in_flight" showname="Bytes in flight: 217" size="0" pos="34" show="217"/>
      </field>
      <field name="tcp.data" showname="TCP segment data (217 bytes)" size="217" pos="66" show="48:54:54:50:2f:31:2e:31:20:33:30:34:20:4e:6f:74:20:4d:6f:64:69:66:69:65:64:0d:0a:43:6f:6e:74:65:6e:74:2d:54:79:70:65:3a:20:61:70:70:6c:69:63:61:74:69:6f:6e:2f:6a:61:76:61:73:63:72:69:70:74:0d:0a:41:63:63:65:70:74:2d:52:61:6e:67:65:73:3a:20:62:79:74:65:73:0d:0a:45:54:61:67:3a:20:22:32:39:32:39:31:38:37:35:35:33:22:0d:0a:4c:61:73:74:2d:4d:6f:64:69:66:69:65:64:3a:20:54:75:65:2c:20:32:37:20:4d:61:72:20:32:30:31:32:20:30:36:3a:33:32:3a:30:37:20:47:4d:54:0d:0a:44:61:74:65:3a:20:46:72:69:2c:20:32:30:20:41:70:72:20:32:30:31:32:20:30:37:3a:31:31:3a:30:37:20:47:4d:54:0d:0a:53:65:72:76:65:72:3a:20:6c:69:67:68:74:74:70:64:2f:31:2e:34:2e:32:38:0d:0a:0d:0a" value="485454502f312e3120333034204e6f74204d6f6469666965640d0a436f6e74656e742d547970653a206170706c69636174696f6e2f6a6176617363726970740d0a4163636570742d52616e6765733a2062797465730d0a455461673a202232393239313837353533220d0a4c6173742d4d6f6469666965643a205475652c203237204d617220323031322030363a33323a303720474d540d0a446174653a204672692c2032302041707220323031322030373a31313a303720474d540d0a5365727665723a206c696768747470642f312e342e32380d0a0d0a"/>
    </proto>
  </packet>
  <packet>
    <proto name="geninfo" pos="0" showname="General information" size="534">
      <field name="num" pos="0" show="85" showname="Number" value="55" size="534"/>
      <field name="len" pos="0" show="534" showname="Frame Length" value="216" size="534"/>
      <field name="caplen" pos="0" show="534" showname="Captured Length" value="216" size="534"/>
      <field name="timestamp" pos="0" show="Apr 20, 2012 09:11:07.554154000 CEST" showname="Captured Time" value="1334905867.554154000" size="534"/>
    </proto>
    <proto name="frame" showname="Frame 85: 534 bytes on wire (4272 bits), 534 bytes captured (4272 bits)" size="534" pos="0">
      <field name="frame.time" showname="Arrival Time: Apr 20, 2012 09:11:07.554154000 CEST" size="0" pos="0" show="Apr 20, 2012 09:11:07.554154000"/>
      <field name="frame.time_epoch" showname="Epoch Time: 1334905867.554154000 seconds" size="0" pos="0" show="1334905867.554154000"/>
      <field name="frame.time_delta" showname="Time delta from previous captured frame: 0.000702000 seconds" size="0" pos="0" show="0.000702000"/>
      <field name="frame.time_delta_displayed" showname="Time delta from previous displayed frame: 0.000702000 seconds" size="0" pos="0" show="0.000702000"/>
      <field name="frame.time_relative" showname="Time since reference or first frame: 0.099960000 seconds" size="0" pos="0" show="0.099960000"/>
      <field name="frame.number" showname="Frame Number: 85" size="0" pos="0" show="85"/>
      <field name="frame.len" showname="Frame Length: 534 bytes (4272 bits)" size="0" pos="0" show="534"/>
      <field name="frame.cap_len" showname="Capture Length: 534 bytes (4272 bits)" size="0" pos="0" show="534"/>
      <field name="frame.marked" showname="Frame is marked: False" size="0" pos="0" show="0"/>
      <field name="frame.ignored" showname="Frame is ignored: False" size="0" pos="0" show="0"/>
      <field name="frame.protocols" showname="Protocols in frame: eth:ip:tcp:http" size="0" pos="0" show="eth:ip:tcp:http"/>
    </proto>
    <proto name="eth" showname="Ethernet II, Src: 00:00:00_00:00:00 (00:00:00:00:00:00), Dst: 00:00:00_00:00:00 (00:00:00:00:00:00)" size="14" pos="0">
      <field name="eth.dst" showname="Destination: 00:00:00_00:00:00 (00:00:00:00:00:00)" size="6" pos="0" show="00:00:00:00:00:00" value="000000000000">
        <field name="eth.addr" showname="Address: 00:00:00_00:00:00 (00:00:00:00:00:00)" size="6" pos="0" show="00:00:00:00:00:00" value="000000000000"/>
        <field name="eth.ig" showname=".... ...0 .... .... .... .... = IG bit: Individual address (unicast)" size="3" pos="0" show="0" value="0" unmaskedvalue="000000"/>
        <field name="eth.lg" showname=".... ..0. .... .... .... .... = LG bit: Globally unique address (factory default)" size="3" pos="0" show="0" value="0" unmaskedvalue="000000"/>
      </field>
      <field name="eth.src" showname="Source: 00:00:00_00:00:00 (00:00:00:00:00:00)" size="6" pos="6" show="00:00:00:00:00:00" value="000000000000">
        <field name="eth.addr" showname="Address: 00:00:00_00:00:00 (00:00:00:00:00:00)" size="6" pos="6" show="00:00:00:00:00:00" value="000000000000"/>
        <field name="eth.ig" showname=".... ...0 .... .... .... .... = IG bit: Individual address (unicast)" size="3" pos="6" show="0" value="0" unmaskedvalue="000000"/>
        <field name="eth.lg" showname=".... ..0. .... .... .... .... = LG bit: Globally unique address (factory default)" size="3" pos="6" show="0" value="0" unmaskedvalue="000000"/>
      </field>
      <field name="eth.type" showname="Type: IP (0x0800)" size="2" pos="12" show="0x0800" value="0800"/>
    </proto>
    <proto name="ip" showname="Internet Protocol Version 4, Src: 127.0.0.1 (127.0.0.1), Dst: 127.0.0.1 (127.0.0.1)" size="20" pos="14">
      <field name="ip.version" showname="Version: 4" size="1" pos="14" show="4" value="45"/>
      <field name="ip.hdr_len" showname="Header length: 20 bytes" size="1" pos="14" show="20" value="45"/>
      <field name="ip.dsfield" showname="Differentiated Services Field: 0x00 (DSCP 0x00: Default; ECN: 0x00: Not-ECT (Not ECN-Capable Transport))" size="1" pos="15" show="0" value="00">
        <field name="ip.dsfield.dscp" showname="0000 00.. = Differentiated Services Codepoint: Default (0x00)" size="1" pos="15" show="0x00" value="0" unmaskedvalue="00"/>
        <field name="ip.dsfield.ecn" showname=".... ..00 = Explicit Congestion Notification: Not-ECT (Not ECN-Capable Transport) (0x00)" size="1" pos="15" show="0x00" value="0" unmaskedvalue="00"/>
      </field>
      <field name="ip.len" showname="Total Length: 520" size="2" pos="16" show="520" value="0208"/>
      <field name="ip.id" showname="Identification: 0x7f62 (32610)" size="2" pos="18" show="0x7f62" value="7f62"/>
      <field name="ip.flags" showname="Flags: 0x02 (Don't Fragment)" size="1" pos="20" show="0x02" value="40">
        <field name="ip.flags.rb" showname="0... .... = Reserved bit: Not set" size="1" pos="20" show="0" value="40"/>
        <field name="ip.flags.df" showname=".1.. .... = Don't fragment: Set" size="1" pos="20" show="1" value="40"/>
        <field name="ip.flags.mf" showname="..0. .... = More fragments: Not set" size="1" pos="20" show="0" value="40"/>
      </field>
      <field name="ip.frag_offset" showname="Fragment offset: 0" size="2" pos="20" show="0" value="4000"/>
      <field name="ip.ttl" showname="Time to live: 64" size="1" pos="22" show="64" value="40"/>
      <field name="ip.proto" showname="Protocol: TCP (6)" size="1" pos="23" show="6" value="06"/>
      <field name="ip.checksum" showname="Header checksum: 0xbb8b [correct]" size="2" pos="24" show="0xbb8b" value="bb8b">
        <field name="ip.checksum_good" showname="Good: True" size="2" pos="24" show="1" value="bb8b"/>
        <field name="ip.checksum_bad" showname="Bad: False" size="2" pos="24" show="0" value="bb8b"/>
      </field>
      <field name="ip.src" showname="Source: 127.0.0.1 (127.0.0.1)" size="4" pos="26" show="127.0.0.1" value="7f000001"/>
      <field name="ip.addr" showname="Source or Destination Address: 127.0.0.1 (127.0.0.1)" hide="yes" size="4" pos="26" show="127.0.0.1" value="7f000001"/>
      <field name="ip.src_host" showname="Source Host: 127.0.0.1" hide="yes" size="4" pos="26" show="127.0.0.1" value="7f000001"/>
      <field name="ip.host" showname="Source or Destination Host: 127.0.0.1" hide="yes" size="4" pos="26" show="127.0.0.1" value="7f000001"/>
      <field name="ip.dst" showname="Destination: 127.0.0.1 (127.0.0.1)" size="4" pos="30" show="127.0.0.1" value="7f000001"/>
      <field name="ip.addr" showname="Source or Destination Address: 127.0.0.1 (127.0.0.1)" hide="yes" size="4" pos="30" show="127.0.0.1" value="7f000001"/>
      <field name="ip.dst_host" showname="Destination Host: 127.0.0.1" hide="yes" size="4" pos="30" show="127.0.0.1" value="7f000001"/>
      <field name="ip.host" showname="Source or Destination Host: 127.0.0.1" hide="yes" size="4" pos="30" show="127.0.0.1" value="7f000001"/>
    </proto>
    <proto name="tcp" showname="Transmission Control Protocol, Src Port: 37097 (37097), Dst Port: http (80), Seq: 1482, Ack: 652, Len: 468" size="32" pos="34">
      <field name="tcp.srcport" showname="Source port: 37097 (37097)" size="2" pos="34" show="37097" value="90e9"/>
      <field name="tcp.dstport" showname="Destination port: http (80)" size="2" pos="36" show="80" value="0050"/>
      <field name="tcp.port" showname="Source or Destination Port: 37097" hide="yes" size="2" pos="34" show="37097" value="90e9"/>
      <field name="tcp.port" showname="Source or Destination Port: 80" hide="yes" size="2" pos="36" show="80" value="0050"/>
      <field name="tcp.stream" showname="Stream index: 5" size="0" pos="34" show="5"/>
      <field name="tcp.len" showname="TCP Segment Len: 468" hide="yes" size="1" pos="46" show="468" value="80"/>
      <field name="tcp.seq" showname="Sequence number: 1482    (relative sequence number)" size="4" pos="38" show="1482" value="887161cc"/>
      <field name="tcp.nxtseq" showname="Next sequence number: 1950    (relative sequence number)" size="0" pos="34" show="1950"/>
      <field name="tcp.ack" showname="Acknowledgement number: 652    (relative ack number)" size="4" pos="42" show="652" value="0e2c85a5"/>
      <field name="tcp.hdr_len" showname="Header length: 32 bytes" size="1" pos="46" show="32" value="80"/>
      <field name="tcp.flags" showname="Flags: 0x18 (PSH, ACK)" size="2" pos="46" show="0x18" value="8018">
        <field name="tcp.flags.res" showname="000. .... .... = Reserved: Not set" size="1" pos="46" show="0" value="0" unmaskedvalue="80"/>
        <field name="tcp.flags.ns" showname="...0 .... .... = Nonce: Not set" size="1" pos="46" show="0" value="0" unmaskedvalue="80"/>
        <field name="tcp.flags.cwr" showname=".... 0... .... = Congestion Window Reduced (CWR): Not set" size="1" pos="47" show="0" value="0" unmaskedvalue="18"/>
        <field name="tcp.flags.ecn" showname=".... .0.. .... = ECN-Echo: Not set" size="1" pos="47" show="0" value="0" unmaskedvalue="18"/>
        <field name="tcp.flags.urg" showname=".... ..0. .... = Urgent: Not set" size="1" pos="47" show="0" value="0" unmaskedvalue="18"/>
        <field name="tcp.flags.ack" showname=".... ...1 .... = Acknowledgement: Set" size="1" pos="47" show="1" value="1" unmaskedvalue="18"/>
        <field name="tcp.flags.push" showname=".... .... 1... = Push: Set" size="1" pos="47" show="1" value="1" unmaskedvalue="18"/>
        <field name="tcp.flags.reset" showname=".... .... .0.. = Reset: Not set" size="1" pos="47" show="0" value="0" unmaskedvalue="18"/>
        <field name="tcp.flags.syn" showname=".... .... ..0. = Syn: Not set" size="1" pos="47" show="0" value="0" unmaskedvalue="18"/>
        <field name="tcp.flags.fin" showname=".... .... ...0 = Fin: Not set" size="1" pos="47" show="0" value="0" unmaskedvalue="18"/>
      </field>
      <field name="tcp.window_size_value" showname="Window size value: 282" size="2" pos="48" show="282" value="011a"/>
      <field name="tcp.window_size" showname="Calculated window size: 36096" size="2" pos="48" show="36096" value="011a"/>
      <field name="tcp.window_size_scalefactor" showname="Window size scaling factor: 128" size="2" pos="48" show="128" value="011a"/>
      <field name="tcp.checksum" showname="Checksum: 0xfffc [validation disabled]" size="2" pos="50" show="0xfffc" value="fffc">
        <field name="tcp.checksum_good" showname="Good Checksum: False" size="2" pos="50" show="0" value="fffc"/>
        <field name="tcp.checksum_bad" showname="Bad Checksum: False" size="2" pos="50" show="0" value="fffc"/>
      </field>
      <field name="tcp.options" showname="Options: (12 bytes)" size="12" pos="54" show="01:01:08:0a:00:14:23:77:00:14:23:76" value="0101080a0014237700142376">
        <field name="" show="No-Operation (NOP)" size="1" pos="54" value="01"/>
        <field name="" show="No-Operation (NOP)" size="1" pos="55" value="01"/>
        <field name="" show="Timestamps: TSval 1319799, TSecr 1319798" size="10" pos="56" value="080a0014237700142376">
          <field name="tcp.option_kind" showname="Kind: Timestamp (8)" size="1" pos="56" show="8" value="08"/>
          <field name="tcp.option_len" showname="Length: 10" size="1" pos="57" show="10" value="0a"/>
          <field name="tcp.options.timestamp.tsval" showname="Timestamp value: 1319799" size="4" pos="58" show="1319799" value="00142377"/>
          <field name="tcp.options.timestamp.tsecr" showname="Timestamp echo reply: 1319798" size="4" pos="62" show="1319798" value="00142376"/>
        </field>
      </field>
      <field name="" show="SEQ/ACK analysis" size="0" pos="34" value="">
        <field name="tcp.analysis.acks_frame" showname="This is an ACK to the segment in frame: 72" size="0" pos="34" show="72"/>
        <field name="tcp.analysis.ack_rtt" showname="The RTT to ACK the segment was: 0.003367000 seconds" size="0" pos="34" show="0.003367000"/>
        <field name="tcp.analysis.bytes_in_flight" showname="Bytes in flight: 468" size="0" pos="34" show="468"/>
      </field>
    </proto>
    <proto name="http" showname="Hypertext Transfer Protocol" size="468" pos="66">
      <field name="" show="GET /scripts/puppeteer.js HTTP/1.1\r\n" size="36" pos="66" value="474554202f736372697074732f7075707065746565722e6a7320485454502f312e310d0a">
        <proto name="expert" showname="Expert Info (Chat/Sequence): GET /scripts/puppeteer.js HTTP/1.1\r\n" size="0" pos="0">
          <field name="expert.message" showname="Message: GET /scripts/puppeteer.js HTTP/1.1\r\n" size="0" pos="0" show="GET /scripts/puppeteer.js HTTP/1.1\\r\\n"/>
          <field name="expert.severity" showname="Severity level: Chat" size="0" pos="0" show="Chat"/>
          <field name="expert.group" showname="Group: Sequence" size="0" pos="0" show="Sequence"/>
        </proto>
        <field name="http.request.method" showname="Request Method: GET" size="3" pos="66" show="GET" value="474554"/>
        <field name="http.request.uri" showname="Request URI: /scripts/puppeteer.js" size="21" pos="70" show="/scripts/puppeteer.js" value="2f736372697074732f7075707065746565722e6a73"/>
        <field name="http.request.version" showname="Request Version: HTTP/1.1" size="8" pos="92" show="HTTP/1.1" value="485454502f312e31"/>
      </field>
      <field name="http.host" showname="Host: glamster\r\n" size="16" pos="102" show="glamster" value="486f73743a20676c616d737465720d0a"/>
      <field name="http.connection" showname="Connection: keep-alive\r\n" size="24" pos="118" show="keep-alive" value="436f6e6e656374696f6e3a206b6565702d616c6976650d0a"/>
      <field name="http.user_agent" showname="User-Agent: Mozilla/5.0 (X11; Linux x86_64) AppleWebKit/535.19 (KHTML, like Gecko) Ubuntu/11.10 Chromium/18.0.1025.142 Chrome/18.0.1025.142 Safari/535.19\r\n" size="155" pos="142" show="Mozilla/5.0 (X11; Linux x86_64) AppleWebKit/535.19 (KHTML, like Gecko) Ubuntu/11.10 Chromium/18.0.1025.142 Chrome/18.0.1025.142 Safari/535.19" value="557365722d4167656e743a204d6f7a696c6c612f352e3020285831313b204c696e7578207838365f363429204170706c655765624b69742f3533352e313920284b48544d4c2c206c696b65204765636b6f29205562756e74752f31312e3130204368726f6d69756d2f31382e302e313032352e313432204368726f6d652f31382e302e313032352e313432205361666172692f3533352e31390d0a"/>
      <field name="http.accept" showname="Accept: */*\r\n" size="13" pos="297" show="*/*" value="4163636570743a202a2f2a0d0a"/>
      <field name="http.referer" showname="Referer: http://glamster/\r\n" size="27" pos="310" show="http://glamster/" value="526566657265723a20687474703a2f2f676c616d737465722f0d0a"/>
      <field name="http.accept_encoding" showname="Accept-Encoding: gzip,deflate,sdch\r\n" size="36" pos="337" show="gzip,deflate,sdch" value="4163636570742d456e636f64696e673a20677a69702c6465666c6174652c736463680d0a"/>
      <field name="http.accept_language" showname="Accept-Language: en-US,en;q=0.8\r\n" size="33" pos="373" show="en-US,en;q=0.8" value="4163636570742d4c616e67756167653a20656e2d55532c656e3b713d302e380d0a"/>
      <field name="" show="Accept-Charset: ISO-8859-1,utf-8;q=0.7,*;q=0.3\r\n" size="48" pos="406" value="4163636570742d436861727365743a2049534f2d383835392d312c7574662d383b713d302e372c2a3b713d302e330d0a"/>
      <field name="" show="If-None-Match: &quot;177299896&quot;\r\n" size="28" pos="454" value="49662d4e6f6e652d4d617463683a2022313737323939383936220d0a"/>
      <field name="" show="If-Modified-Since: Thu, 29 Mar 2012 07:23:25 GMT\r\n" size="50" pos="482" value="49662d4d6f6469666965642d53696e63653a205468752c203239204d617220323031322030373a32333a323520474d540d0a"/>
      <field name="" show="\r\n" size="2" pos="532" value="0d0a"/>
      <field name="http.request.full_uri" showname="Full request URI: http://glamster/scripts/puppeteer.js" size="0" pos="66" show="http://glamster/scripts/puppeteer.js"/>
      <field name="http.request" showname="Request: True" hide="yes" size="0" pos="66" show="1"/>
    </proto>
  </packet>
  <packet>
    <proto name="geninfo" pos="0" showname="General information" size="1688">
      <field name="num" pos="0" show="86" showname="Number" value="56" size="1688"/>
      <field name="len" pos="0" show="1688" showname="Frame Length" value="698" size="1688"/>
      <field name="caplen" pos="0" show="1688" showname="Captured Length" value="698" size="1688"/>
      <field name="timestamp" pos="0" show="Apr 20, 2012 09:11:07.554282000 CEST" showname="Captured Time" value="1334905867.554282000" size="1688"/>
    </proto>
    <proto name="frame" showname="Frame 86: 1688 bytes on wire (13504 bits), 1688 bytes captured (13504 bits)" size="1688" pos="0">
      <field name="frame.time" showname="Arrival Time: Apr 20, 2012 09:11:07.554282000 CEST" size="0" pos="0" show="Apr 20, 2012 09:11:07.554282000"/>
      <field name="frame.time_epoch" showname="Epoch Time: 1334905867.554282000 seconds" size="0" pos="0" show="1334905867.554282000"/>
      <field name="frame.time_delta" showname="Time delta from previous captured frame: 0.000128000 seconds" size="0" pos="0" show="0.000128000"/>
      <field name="frame.time_delta_displayed" showname="Time delta from previous displayed frame: 0.000128000 seconds" size="0" pos="0" show="0.000128000"/>
      <field name="frame.time_relative" showname="Time since reference or first frame: 0.100088000 seconds" size="0" pos="0" show="0.100088000"/>
      <field name="frame.number" showname="Frame Number: 86" size="0" pos="0" show="86"/>
      <field name="frame.len" showname="Frame Length: 1688 bytes (13504 bits)" size="0" pos="0" show="1688"/>
      <field name="frame.cap_len" showname="Capture Length: 1688 bytes (13504 bits)" size="0" pos="0" show="1688"/>
      <field name="frame.marked" showname="Frame is marked: False" size="0" pos="0" show="0"/>
      <field name="frame.ignored" showname="Frame is ignored: False" size="0" pos="0" show="0"/>
      <field name="frame.protocols" showname="Protocols in frame: eth:ip:tcp" size="0" pos="0" show="eth:ip:tcp"/>
    </proto>
    <proto name="eth" showname="Ethernet II, Src: 00:00:00_00:00:00 (00:00:00:00:00:00), Dst: 00:00:00_00:00:00 (00:00:00:00:00:00)" size="14" pos="0">
      <field name="eth.dst" showname="Destination: 00:00:00_00:00:00 (00:00:00:00:00:00)" size="6" pos="0" show="00:00:00:00:00:00" value="000000000000">
        <field name="eth.addr" showname="Address: 00:00:00_00:00:00 (00:00:00:00:00:00)" size="6" pos="0" show="00:00:00:00:00:00" value="000000000000"/>
        <field name="eth.ig" showname=".... ...0 .... .... .... .... = IG bit: Individual address (unicast)" size="3" pos="0" show="0" value="0" unmaskedvalue="000000"/>
        <field name="eth.lg" showname=".... ..0. .... .... .... .... = LG bit: Globally unique address (factory default)" size="3" pos="0" show="0" value="0" unmaskedvalue="000000"/>
      </field>
      <field name="eth.src" showname="Source: 00:00:00_00:00:00 (00:00:00:00:00:00)" size="6" pos="6" show="00:00:00:00:00:00" value="000000000000">
        <field name="eth.addr" showname="Address: 00:00:00_00:00:00 (00:00:00:00:00:00)" size="6" pos="6" show="00:00:00:00:00:00" value="000000000000"/>
        <field name="eth.ig" showname=".... ...0 .... .... .... .... = IG bit: Individual address (unicast)" size="3" pos="6" show="0" value="0" unmaskedvalue="000000"/>
        <field name="eth.lg" showname=".... ..0. .... .... .... .... = LG bit: Globally unique address (factory default)" size="3" pos="6" show="0" value="0" unmaskedvalue="000000"/>
      </field>
      <field name="eth.type" showname="Type: IP (0x0800)" size="2" pos="12" show="0x0800" value="0800"/>
    </proto>
    <proto name="ip" showname="Internet Protocol Version 4, Src: 127.0.0.1 (127.0.0.1), Dst: 127.0.0.1 (127.0.0.1)" size="20" pos="14">
      <field name="ip.version" showname="Version: 4" size="1" pos="14" show="4" value="45"/>
      <field name="ip.hdr_len" showname="Header length: 20 bytes" size="1" pos="14" show="20" value="45"/>
      <field name="ip.dsfield" showname="Differentiated Services Field: 0x00 (DSCP 0x00: Default; ECN: 0x00: Not-ECT (Not ECN-Capable Transport))" size="1" pos="15" show="0" value="00">
        <field name="ip.dsfield.dscp" showname="0000 00.. = Differentiated Services Codepoint: Default (0x00)" size="1" pos="15" show="0x00" value="0" unmaskedvalue="00"/>
        <field name="ip.dsfield.ecn" showname=".... ..00 = Explicit Congestion Notification: Not-ECT (Not ECN-Capable Transport) (0x00)" size="1" pos="15" show="0x00" value="0" unmaskedvalue="00"/>
      </field>
      <field name="ip.len" showname="Total Length: 1674" size="2" pos="16" show="1674" value="068a"/>
      <field name="ip.id" showname="Identification: 0xa048 (41032)" size="2" pos="18" show="0xa048" value="a048"/>
      <field name="ip.flags" showname="Flags: 0x02 (Don't Fragment)" size="1" pos="20" show="0x02" value="40">
        <field name="ip.flags.rb" showname="0... .... = Reserved bit: Not set" size="1" pos="20" show="0" value="40"/>
        <field name="ip.flags.df" showname=".1.. .... = Don't fragment: Set" size="1" pos="20" show="1" value="40"/>
        <field name="ip.flags.mf" showname="..0. .... = More fragments: Not set" size="1" pos="20" show="0" value="40"/>
      </field>
      <field name="ip.frag_offset" showname="Fragment offset: 0" size="2" pos="20" show="0" value="4000"/>
      <field name="ip.ttl" showname="Time to live: 64" size="1" pos="22" show="64" value="40"/>
      <field name="ip.proto" showname="Protocol: TCP (6)" size="1" pos="23" show="6" value="06"/>
      <field name="ip.checksum" showname="Header checksum: 0x9623 [correct]" size="2" pos="24" show="0x9623" value="9623">
        <field name="ip.checksum_good" showname="Good: True" size="2" pos="24" show="1" value="9623"/>
        <field name="ip.checksum_bad" showname="Bad: False" size="2" pos="24" show="0" value="9623"/>
      </field>
      <field name="ip.src" showname="Source: 127.0.0.1 (127.0.0.1)" size="4" pos="26" show="127.0.0.1" value="7f000001"/>
      <field name="ip.addr" showname="Source or Destination Address: 127.0.0.1 (127.0.0.1)" hide="yes" size="4" pos="26" show="127.0.0.1" value="7f000001"/>
      <field name="ip.src_host" showname="Source Host: 127.0.0.1" hide="yes" size="4" pos="26" show="127.0.0.1" value="7f000001"/>
      <field name="ip.host" showname="Source or Destination Host: 127.0.0.1" hide="yes" size="4" pos="26" show="127.0.0.1" value="7f000001"/>
      <field name="ip.dst" showname="Destination: 127.0.0.1 (127.0.0.1)" size="4" pos="30" show="127.0.0.1" value="7f000001"/>
      <field name="ip.addr" showname="Source or Destination Address: 127.0.0.1 (127.0.0.1)" hide="yes" size="4" pos="30" show="127.0.0.1" value="7f000001"/>
      <field name="ip.dst_host" showname="Destination Host: 127.0.0.1" hide="yes" size="4" pos="30" show="127.0.0.1" value="7f000001"/>
      <field name="ip.host" showname="Source or Destination Host: 127.0.0.1" hide="yes" size="4" pos="30" show="127.0.0.1" value="7f000001"/>
    </proto>
    <proto name="tcp" showname="Transmission Control Protocol, Src Port: http (80), Dst Port: 37097 (37097), Seq: 652, Ack: 1950, Len: 1622" size="32" pos="34">
      <field name="tcp.srcport" showname="Source port: http (80)" size="2" pos="34" show="80" value="0050"/>
      <field name="tcp.dstport" showname="Destination port: 37097 (37097)" size="2" pos="36" show="37097" value="90e9"/>
      <field name="tcp.port" showname="Source or Destination Port: 80" hide="yes" size="2" pos="34" show="80" value="0050"/>
      <field name="tcp.port" showname="Source or Destination Port: 37097" hide="yes" size="2" pos="36" show="37097" value="90e9"/>
      <field name="tcp.stream" showname="Stream index: 5" size="0" pos="34" show="5"/>
      <field name="tcp.len" showname="TCP Segment Len: 1622" hide="yes" size="1" pos="46" show="1622" value="80"/>
      <field name="tcp.seq" showname="Sequence number: 652    (relative sequence number)" size="4" pos="38" show="652" value="0e2c85a5"/>
      <field name="tcp.nxtseq" showname="Next sequence number: 2274    (relative sequence number)" size="0" pos="34" show="2274"/>
      <field name="tcp.ack" showname="Acknowledgement number: 1950    (relative ack number)" size="4" pos="42" show="1950" value="887163a0"/>
      <field name="tcp.hdr_len" showname="Header length: 32 bytes" size="1" pos="46" show="32" value="80"/>
      <field name="tcp.flags" showname="Flags: 0x18 (PSH, ACK)" size="2" pos="46" show="0x18" value="8018">
        <field name="tcp.flags.res" showname="000. .... .... = Reserved: Not set" size="1" pos="46" show="0" value="0" unmaskedvalue="80"/>
        <field name="tcp.flags.ns" showname="...0 .... .... = Nonce: Not set" size="1" pos="46" show="0" value="0" unmaskedvalue="80"/>
        <field name="tcp.flags.cwr" showname=".... 0... .... = Congestion Window Reduced (CWR): Not set" size="1" pos="47" show="0" value="0" unmaskedvalue="18"/>
        <field name="tcp.flags.ecn" showname=".... .0.. .... = ECN-Echo: Not set" size="1" pos="47" show="0" value="0" unmaskedvalue="18"/>
        <field name="tcp.flags.urg" showname=".... ..0. .... = Urgent: Not set" size="1" pos="47" show="0" value="0" unmaskedvalue="18"/>
        <field name="tcp.flags.ack" showname=".... ...1 .... = Acknowledgement: Set" size="1" pos="47" show="1" value="1" unmaskedvalue="18"/>
        <field name="tcp.flags.push" showname=".... .... 1... = Push: Set" size="1" pos="47" show="1" value="1" unmaskedvalue="18"/>
        <field name="tcp.flags.reset" showname=".... .... .0.. = Reset: Not set" size="1" pos="47" show="0" value="0" unmaskedvalue="18"/>
        <field name="tcp.flags.syn" showname=".... .... ..0. = Syn: Not set" size="1" pos="47" show="0" value="0" unmaskedvalue="18"/>
        <field name="tcp.flags.fin" showname=".... .... ...0 = Fin: Not set" size="1" pos="47" show="0" value="0" unmaskedvalue="18"/>
      </field>
      <field name="tcp.window_size_value" showname="Window size value: 290" size="2" pos="48" show="290" value="0122"/>
      <field name="tcp.window_size" showname="Calculated window size: 37120" size="2" pos="48" show="37120" value="0122"/>
      <field name="tcp.window_size_scalefactor" showname="Window size scaling factor: 128" size="2" pos="48" show="128" value="0122"/>
      <field name="tcp.checksum" showname="Checksum: 0x047f [validation disabled]" size="2" pos="50" show="0x047f" value="047f">
        <field name="tcp.checksum_good" showname="Good Checksum: False" size="2" pos="50" show="0" value="047f"/>
        <field name="tcp.checksum_bad" showname="Bad Checksum: False" size="2" pos="50" show="0" value="047f"/>
      </field>
      <field name="tcp.options" showname="Options: (12 bytes)" size="12" pos="54" show="01:01:08:0a:00:14:23:77:00:14:23:77" value="0101080a0014237700142377">
        <field name="" show="No-Operation (NOP)" size="1" pos="54" value="01"/>
        <field name="" show="No-Operation (NOP)" size="1" pos="55" value="01"/>
        <field name="" show="Timestamps: TSval 1319799, TSecr 1319799" size="10" pos="56" value="080a0014237700142377">
          <field name="tcp.option_kind" showname="Kind: Timestamp (8)" size="1" pos="56" show="8" value="08"/>
          <field name="tcp.option_len" showname="Length: 10" size="1" pos="57" show="10" value="0a"/>
          <field name="tcp.options.timestamp.tsval" showname="Timestamp value: 1319799" size="4" pos="58" show="1319799" value="00142377"/>
          <field name="tcp.options.timestamp.tsecr" showname="Timestamp echo reply: 1319799" size="4" pos="62" show="1319799" value="00142377"/>
        </field>
      </field>
      <field name="" show="SEQ/ACK analysis" size="0" pos="34" value="">
        <field name="tcp.analysis.acks_frame" showname="This is an ACK to the segment in frame: 85" size="0" pos="34" show="85"/>
        <field name="tcp.analysis.ack_rtt" showname="The RTT to ACK the segment was: 0.000128000 seconds" size="0" pos="34" show="0.000128000"/>
        <field name="tcp.analysis.bytes_in_flight" showname="Bytes in flight: 1622" size="0" pos="34" show="1622"/>
      </field>
      <field name="tcp.data" showname="TCP segment data (1622 bytes)" size="1622" pos="66" show="48:54:54:50:2f:31:2e:31:20:32:30:30:20:4f:4b:0d:0a:43:6f:6e:74:65:6e:74:2d:54:79:70:65:3a:20:61:70:70:6c:69:63:61:74:69:6f:6e:2f:6a:61:76:61:73:63:72:69:70:74:0d:0a:41:63:63:65:70:74:2d:52:61:6e:67:65:73:3a:20:62:79:74:65:73:0d:0a:45:54:61:67:3a:20:22:33:34:37:37:33:33:32:31:34:38:22:0d:0a:4c:61:73:74:2d:4d:6f:64:69:66:69:65:64:3a:20:4d:6f:6e:2c:20:30:32:20:41:70:72:20:32:30:31:32:20:30:37:3a:31:34:3a:34:39:20:47:4d:54:0d:0a:43:6f:6e:74:65:6e:74:2d:4c:65:6e:67:74:68:3a:20:31:33:39:33:0d:0a:44:61:74:65:3a:20:46:72:69:2c:20:32:30:20:41:70:72:20:32:30:31:32:20:30:37:3a:31:31:3a:30:37:20:47:4d:54:0d:0a:53:65:72:76:65:72:3a:20:6c:69:67:68:74:74:70:64:2f:31:2e:34:2e:32:38:0d:0a:0d:0a:2f:2a:67:6c:6f:62:61:6c:20:6a:51:75:65:72:79:3a:20:66:61:6c:73:65:2c:20:50:75:70:70:65:74:65:65:72:3a:20:66:61:6c:73:65:2c:20:70:61:72:73:65:55:52:4c:3a:20:66:61:6c:73:65:20:2a:2f:0a:0a:2f:2f:20:47:6c:6f:62:61:6c:6c:79:20:61:76:61:69:6c:61:62:6c:65:20:76:61:72:69:61:62:6c:65:73:0a:76:61:72:20:48:69:73:74:6f:72:79:3b:0a:76:61:72:20:67:6c:61:6d:73:74:65:72:20:3d:20:7b:7d:3b:0a:0a:6a:51:75:65:72:79:28:29:2e:72:65:61:64:79:28:66:75:6e:63:74:69:6f:6e:28:29:20:7b:0a:20:20:20:20:22:75:73:65:20:73:74:72:69:63:74:22:3b:0a:0a:20:20:20:20:2f:2f:20:49:6e:69:74:69:6c:69:61:6c:69:7a:65:20:61:70:70:6c:69:63:61:74:69:6f:6e:0a:20:20:20:20:76:61:72:20:61:70:70:20:20:20:20:3d:20:6e:65:77:20:50:75:70:70:65:74:65:65:72:2e:41:70:70:28:29:2c:0a:20:20:20:20:20:20:20:20:72:6f:75:74:65:72:20:3d:20:6e:65:77:20:50:75:70:70:65:74:65:65:72:2e:52:6f:75:74:65:72:28:20:5b:0a:20:20:20:20:20:20:20:20:20:20:20:20:7b:20:20:20:6e:61:6d:65:3a:20:20:20:22:6d:61:69:6e:22:2c:0a:20:20:20:20:20:20:20:20:20:20:20:20:20:20:20:20:72:65:67:65:78:70:3a:20:2f:5e:5c:2f:24:2f:20:7d:2c:0a:20:20:20:20:20:20:20:20:20:20:20:20:7b:20:20:20:6e:61:6d:65:3a:20:20:20:22:73:65:61:72:63:68:22:2c:0a:20:20:20:20:20:20:20:20:20:20:20:20:20:20:20:20:72:65:67:65:78:70:3a:20:2f:5e:5c:2f:73:5c:2f:28:2e:2a:29:24:2f:20:7d:2c:0a:20:20:20:20:20:20:20:20:20:20:20:20:7b:20:20:20:6e:61:6d:65:3a:20:20:20:22:70:72:6f:64:75:63:74:22:2c:0a:20:20:20:20:20:20:20:20:20:20:20:20:20:20:20:20:72:65:67:65:78:70:3a:20:2f:5e:5c:2f:70:5c:2f:28:5b:30:2d:39:5d:2b:29:5c:2f:2f:20:7d:2c:0a:20:20:20:20:20:20:20:20:20:20:20:20:7b:20:20:20:6e:61:6d:65:3a:20:20:20:22:65:78:69:74:22:2c:0a:20:20:20:20:20:20:20:20:20:20:20:20:20:20:20:20:72:65:67:65:78:70:3a:20:2f:5e:5c:2f:65:78:69:74:5c:2f:28:5b:61:2d:7a:5d:2b:29:5c:2f:28:5b:30:2d:39:5d:2b:29:24:2f:20:7d:2c:0a:20:20:20:20:20:20:20:20:20:20:20:20:7b:20:20:20:6e:61:6d:65:3a:20:20:20:22:34:30:34:22:2c:0a:20:20:20:20:20:20:20:20:20:20:20:20:20:20:20:20:72:65:67:65:78:70:3a:20:2f:2e:2f:20:7d:0a:20:20:20:20:5d:20:29:3b:0a:0a:20:20:20:20:67:6c:61:6d:73:74:65:72:2e:68:6f:73:74:52:65:67:69:73:74:72:79:20:3d:20:6e:65:77:20:50:75:70:70:65:74:65:65:72:2e:68:6f:73:74:52:65:67:69:73:74:72:79:28:20:7b:0a:20:20:20:20:20:20:20:20:22:73:65:61:72:63:68:22:3a:20:20:20:20:20:20:20:22:66:61:73:22:2c:0a:20:20:20:20:20:20:20:20:22:64:62:22:3a:20:20:20:20:20:20:20:20:20:20:20:22:61:70:69:2e:73:74:6f:72:61:67:65:22:2c:0a:20:20:20:20:20:20:20:20:22:61:75:74:6f:63:6f:6d:70:6c:65:74:65:22:3a:20:22:61:75:74:6f:63:6f:6d:70:6c:65:74:65:22:2c:0a:20:20:20:20:20:20:20:20:22:75:72:6c:22:3a:20:20:20:20:20:20:20:20:20:20:22:61:70:69:2e:75:72:6c:22:2c:0a:20:20:20:20:20:20:20:20:22:73:65:73:73:69:6f:6e:22:3a:20:20:20:20:20:20:22:61:70:69:2e:73:65:73:73:69:6f:6e:22:0a:20:20:20:20:7d:20:29:3b:0a:0a:0a:20:20:20:20:2f:2f:20:53:74:61:72:74:20:61:70:70:6c:69:63:61:74:69:6f:6e:20:66:72:6f:6d:20:63:75:72:72:65:6e:74:6c:79:20:63:6c:69:63:6b:65:64:20:2f:20:75:73:65:64:20:55:52:4c:0a:20:20:20:20:28:66:75:6e:63:74:69:6f:6e:28:20:77:69:6e:64:6f:77:20:29:20:7b:0a:20:20:20:20:20:20:20:20:48:69:73:74:6f:72:79:20:3d:20:77:69:6e:64:6f:77:2e:48:69:73:74:6f:72:79:3b:0a:0a:20:20:20:20:20:20:20:20:2f:2f:20:42:69:6e:64:20:74:6f:20:53:74:61:74:65:43:68:61:6e:67:65:20:45:76:65:6e:74:0a:20:20:20:20:20:20:20:20:48:69:73:74:6f:72:79:2e:41:64:61:70:74:65:72:2e:62:69:6e:64:28:20:77:69:6e:64:6f:77:2c:20:27:73:74:61:74:65:63:68:61:6e:67:65:27:2c:20:66:75:6e:63:74:69:6f:6e:20:28:29:20:7b:0a:20:20:20:20:20:20:20:20:20:20:20:20:76:61:72:20:53:74:61:74:65:20:3d:20:48:69:73:74:6f:72:79:2e:67:65:74:53:74:61:74:65:28:29:3b:0a:20:20:20:20:20:20:20:20:20:20:20:20:72:6f:75:74:65:72:2e:72:6f:75:74:65:28:20:70:61:72:73:65:55:52:4c:28:20:6c:6f:63:61:74:69:6f:6e:2e:68:72:65:66:20:29:20:29:3b:0a:20:20:20:20:20:20:20:20:7d:29:3b:0a:0a:20:20:20:20:20:20:20:20:6a:51:75:65:72:79:28:20:77:69:6e:64:6f:77:20:29:2e:74:72:69:67:67:65:72:28:20:22:73:74:61:74:65:63:68:61:6e:67:65:22:20:29:3b:0a:20:20:20:20:20:20:20:20:6a:51:75:65:72:79:28:20:77:69:6e:64:6f:77:20:29:2e:74:72:69:67:67:65:72:28:20:22:63:6f:6e:74:65:6e:74:4c:6f:61:64:65:64:22:2c:20:22:62:6f:64:79:22:20:29:3b:0a:0a:20:20:20:20:7d:28:20:77:69:6e:64:6f:77:20:29:20:29:3b:0a:7d:20:29:3b:0a" value="485454502f312e3120323030204f4b0d0a436f6e74656e742d547970653a206170706c69636174696f6e2f6a6176617363726970740d0a4163636570742d52616e6765733a2062797465730d0a455461673a202233343737333332313438220d0a4c6173742d4d6f6469666965643a204d6f6e2c2030322041707220323031322030373a31343a343920474d540d0a436f6e74656e742d4c656e6774683a20313339330d0a446174653a204672692c2032302041707220323031322030373a31313a303720474d540d0a5365727665723a206c696768747470642f312e342e32380d0a0d0a2f2a676c6f62616c206a51756572793a2066616c73652c205075707065746565723a2066616c73652c20706172736555524c3a2066616c7365202a2f0a0a2f2f20476c6f62616c6c7920617661696c61626c65207661726961626c65730a76617220486973746f72793b0a76617220676c616d73746572203d207b7d3b0a0a6a517565727928292e72656164792866756e6374696f6e2829207b0a202020202275736520737472696374223b0a0a202020202f2f20496e6974696c69616c697a65206170706c69636174696f6e0a2020202076617220617070202020203d206e6577205075707065746565722e41707028292c0a2020202020202020726f75746572203d206e6577205075707065746565722e526f7574657228205b0a2020202020202020202020207b2020206e616d653a202020226d61696e222c0a202020202020202020202020202020207265676578703a202f5e5c2f242f207d2c0a2020202020202020202020207b2020206e616d653a20202022736561726368222c0a202020202020202020202020202020207265676578703a202f5e5c2f735c2f282e2a29242f207d2c0a2020202020202020202020207b2020206e616d653a2020202270726f64756374222c0a202020202020202020202020202020207265676578703a202f5e5c2f705c2f285b302d395d2b295c2f2f207d2c0a2020202020202020202020207b2020206e616d653a2020202265786974222c0a202020202020202020202020202020207265676578703a202f5e5c2f657869745c2f285b612d7a5d2b295c2f285b302d395d2b29242f207d2c0a2020202020202020202020207b2020206e616d653a20202022343034222c0a202020202020202020202020202020207265676578703a202f2e2f207d0a202020205d20293b0a0a20202020676c616d737465722e686f73745265676973747279203d206e6577205075707065746565722e686f7374526567697374727928207b0a202020202020202022736561726368223a2020202020202022666173222c0a2020202020202020226462223a2020202020202020202020226170692e73746f72616765222c0a2020202020202020226175746f636f6d706c657465223a20226175746f636f6d706c657465222c0a20202020202020202275726c223a20202020202020202020226170692e75726c222c0a20202020202020202273657373696f6e223a202020202020226170692e73657373696f6e220a202020207d20293b0a0a0a202020202f2f205374617274206170706c69636174696f6e2066726f6d2063757272656e746c7920636c69636b6564202f20757365642055524c0a202020202866756e6374696f6e282077696e646f772029207b0a2020202020202020486973746f7279203d2077696e646f772e486973746f72793b0a0a20202020202020202f2f2042696e6420746f2053746174654368616e6765204576656e740a2020202020202020486973746f72792e416461707465722e62696e64282077696e646f772c202773746174656368616e6765272c2066756e6374696f6e202829207b0a202020202020202020202020766172205374617465203d20486973746f72792e676574537461746528293b0a202020202020202020202020726f757465722e726f7574652820706172736555524c28206c6f636174696f6e2e68726566202920293b0a20202020202020207d293b0a0a20202020202020206a5175657279282077696e646f7720292e7472696767657228202273746174656368616e67652220293b0a20202020202020206a5175657279282077696e646f7720292e74726967676572282022636f6e74656e744c6f61646564222c2022626f64792220293b0a0a202020207d282077696e646f77202920293b0a7d20293b0a"/>
    </proto>
  </packet>
  <packet>
    <proto name="geninfo" pos="0" showname="General information" size="66">
      <field name="num" pos="0" show="91" showname="Number" value="5b" size="66"/>
      <field name="len" pos="0" show="66" showname="Frame Length" value="42" size="66"/>
      <field name="caplen" pos="0" show="66" showname="Captured Length" value="42" size="66"/>
      <field name="timestamp" pos="0" show="Apr 20, 2012 09:11:07.592340000 CEST" showname="Captured Time" value="1334905867.592340000" size="66"/>
    </proto>
    <proto name="frame" showname="Frame 91: 66 bytes on wire (528 bits), 66 bytes captured (528 bits)" size="66" pos="0">
      <field name="frame.time" showname="Arrival Time: Apr 20, 2012 09:11:07.592340000 CEST" size="0" pos="0" show="Apr 20, 2012 09:11:07.592340000"/>
      <field name="frame.time_epoch" showname="Epoch Time: 1334905867.592340000 seconds" size="0" pos="0" show="1334905867.592340000"/>
      <field name="frame.time_delta" showname="Time delta from previous captured frame: 0.000007000 seconds" size="0" pos="0" show="0.000007000"/>
      <field name="frame.time_delta_displayed" showname="Time delta from previous displayed frame: 0.000007000 seconds" size="0" pos="0" show="0.000007000"/>
      <field name="frame.time_relative" showname="Time since reference or first frame: 0.138146000 seconds" size="0" pos="0" show="0.138146000"/>
      <field name="frame.number" showname="Frame Number: 91" size="0" pos="0" show="91"/>
      <field name="frame.len" showname="Frame Length: 66 bytes (528 bits)" size="0" pos="0" show="66"/>
      <field name="frame.cap_len" showname="Capture Length: 66 bytes (528 bits)" size="0" pos="0" show="66"/>
      <field name="frame.marked" showname="Frame is marked: False" size="0" pos="0" show="0"/>
      <field name="frame.ignored" showname="Frame is ignored: False" size="0" pos="0" show="0"/>
      <field name="frame.protocols" showname="Protocols in frame: eth:ip:tcp" size="0" pos="0" show="eth:ip:tcp"/>
    </proto>
    <proto name="eth" showname="Ethernet II, Src: 00:00:00_00:00:00 (00:00:00:00:00:00), Dst: 00:00:00_00:00:00 (00:00:00:00:00:00)" size="14" pos="0">
      <field name="eth.dst" showname="Destination: 00:00:00_00:00:00 (00:00:00:00:00:00)" size="6" pos="0" show="00:00:00:00:00:00" value="000000000000">
        <field name="eth.addr" showname="Address: 00:00:00_00:00:00 (00:00:00:00:00:00)" size="6" pos="0" show="00:00:00:00:00:00" value="000000000000"/>
        <field name="eth.ig" showname=".... ...0 .... .... .... .... = IG bit: Individual address (unicast)" size="3" pos="0" show="0" value="0" unmaskedvalue="000000"/>
        <field name="eth.lg" showname=".... ..0. .... .... .... .... = LG bit: Globally unique address (factory default)" size="3" pos="0" show="0" value="0" unmaskedvalue="000000"/>
      </field>
      <field name="eth.src" showname="Source: 00:00:00_00:00:00 (00:00:00:00:00:00)" size="6" pos="6" show="00:00:00:00:00:00" value="000000000000">
        <field name="eth.addr" showname="Address: 00:00:00_00:00:00 (00:00:00:00:00:00)" size="6" pos="6" show="00:00:00:00:00:00" value="000000000000"/>
        <field name="eth.ig" showname=".... ...0 .... .... .... .... = IG bit: Individual address (unicast)" size="3" pos="6" show="0" value="0" unmaskedvalue="000000"/>
        <field name="eth.lg" showname=".... ..0. .... .... .... .... = LG bit: Globally unique address (factory default)" size="3" pos="6" show="0" value="0" unmaskedvalue="000000"/>
      </field>
      <field name="eth.type" showname="Type: IP (0x0800)" size="2" pos="12" show="0x0800" value="0800"/>
    </proto>
    <proto name="ip" showname="Internet Protocol Version 4, Src: 127.0.0.1 (127.0.0.1), Dst: 127.0.0.1 (127.0.0.1)" size="20" pos="14">
      <field name="ip.version" showname="Version: 4" size="1" pos="14" show="4" value="45"/>
      <field name="ip.hdr_len" showname="Header length: 20 bytes" size="1" pos="14" show="20" value="45"/>
      <field name="ip.dsfield" showname="Differentiated Services Field: 0x00 (DSCP 0x00: Default; ECN: 0x00: Not-ECT (Not ECN-Capable Transport))" size="1" pos="15" show="0" value="00">
        <field name="ip.dsfield.dscp" showname="0000 00.. = Differentiated Services Codepoint: Default (0x00)" size="1" pos="15" show="0x00" value="0" unmaskedvalue="00"/>
        <field name="ip.dsfield.ecn" showname=".... ..00 = Explicit Congestion Notification: Not-ECT (Not ECN-Capable Transport) (0x00)" size="1" pos="15" show="0x00" value="0" unmaskedvalue="00"/>
      </field>
      <field name="ip.len" showname="Total Length: 52" size="2" pos="16" show="52" value="0034"/>
      <field name="ip.id" showname="Identification: 0x7f63 (32611)" size="2" pos="18" show="0x7f63" value="7f63"/>
      <field name="ip.flags" showname="Flags: 0x02 (Don't Fragment)" size="1" pos="20" show="0x02" value="40">
        <field name="ip.flags.rb" showname="0... .... = Reserved bit: Not set" size="1" pos="20" show="0" value="40"/>
        <field name="ip.flags.df" showname=".1.. .... = Don't fragment: Set" size="1" pos="20" show="1" value="40"/>
        <field name="ip.flags.mf" showname="..0. .... = More fragments: Not set" size="1" pos="20" show="0" value="40"/>
      </field>
      <field name="ip.frag_offset" showname="Fragment offset: 0" size="2" pos="20" show="0" value="4000"/>
      <field name="ip.ttl" showname="Time to live: 64" size="1" pos="22" show="64" value="40"/>
      <field name="ip.proto" showname="Protocol: TCP (6)" size="1" pos="23" show="6" value="06"/>
      <field name="ip.checksum" showname="Header checksum: 0xbd5e [correct]" size="2" pos="24" show="0xbd5e" value="bd5e">
        <field name="ip.checksum_good" showname="Good: True" size="2" pos="24" show="1" value="bd5e"/>
        <field name="ip.checksum_bad" showname="Bad: False" size="2" pos="24" show="0" value="bd5e"/>
      </field>
      <field name="ip.src" showname="Source: 127.0.0.1 (127.0.0.1)" size="4" pos="26" show="127.0.0.1" value="7f000001"/>
      <field name="ip.addr" showname="Source or Destination Address: 127.0.0.1 (127.0.0.1)" hide="yes" size="4" pos="26" show="127.0.0.1" value="7f000001"/>
      <field name="ip.src_host" showname="Source Host: 127.0.0.1" hide="yes" size="4" pos="26" show="127.0.0.1" value="7f000001"/>
      <field name="ip.host" showname="Source or Destination Host: 127.0.0.1" hide="yes" size="4" pos="26" show="127.0.0.1" value="7f000001"/>
      <field name="ip.dst" showname="Destination: 127.0.0.1 (127.0.0.1)" size="4" pos="30" show="127.0.0.1" value="7f000001"/>
      <field name="ip.addr" showname="Source or Destination Address: 127.0.0.1 (127.0.0.1)" hide="yes" size="4" pos="30" show="127.0.0.1" value="7f000001"/>
      <field name="ip.dst_host" showname="Destination Host: 127.0.0.1" hide="yes" size="4" pos="30" show="127.0.0.1" value="7f000001"/>
      <field name="ip.host" showname="Source or Destination Host: 127.0.0.1" hide="yes" size="4" pos="30" show="127.0.0.1" value="7f000001"/>
    </proto>
    <proto name="tcp" showname="Transmission Control Protocol, Src Port: 37097 (37097), Dst Port: http (80), Seq: 1950, Ack: 2274, Len: 0" size="32" pos="34">
      <field name="tcp.srcport" showname="Source port: 37097 (37097)" size="2" pos="34" show="37097" value="90e9"/>
      <field name="tcp.dstport" showname="Destination port: http (80)" size="2" pos="36" show="80" value="0050"/>
      <field name="tcp.port" showname="Source or Destination Port: 37097" hide="yes" size="2" pos="34" show="37097" value="90e9"/>
      <field name="tcp.port" showname="Source or Destination Port: 80" hide="yes" size="2" pos="36" show="80" value="0050"/>
      <field name="tcp.stream" showname="Stream index: 5" size="0" pos="34" show="5"/>
      <field name="tcp.len" showname="TCP Segment Len: 0" hide="yes" size="1" pos="46" show="0" value="80"/>
      <field name="tcp.seq" showname="Sequence number: 1950    (relative sequence number)" size="4" pos="38" show="1950" value="887163a0"/>
      <field name="tcp.ack" showname="Acknowledgement number: 2274    (relative ack number)" size="4" pos="42" show="2274" value="0e2c8bfb"/>
      <field name="tcp.hdr_len" showname="Header length: 32 bytes" size="1" pos="46" show="32" value="80"/>
      <field name="tcp.flags" showname="Flags: 0x10 (ACK)" size="2" pos="46" show="0x10" value="8010">
        <field name="tcp.flags.res" showname="000. .... .... = Reserved: Not set" size="1" pos="46" show="0" value="0" unmaskedvalue="80"/>
        <field name="tcp.flags.ns" showname="...0 .... .... = Nonce: Not set" size="1" pos="46" show="0" value="0" unmaskedvalue="80"/>
        <field name="tcp.flags.cwr" showname=".... 0... .... = Congestion Window Reduced (CWR): Not set" size="1" pos="47" show="0" value="0" unmaskedvalue="10"/>
        <field name="tcp.flags.ecn" showname=".... .0.. .... = ECN-Echo: Not set" size="1" pos="47" show="0" value="0" unmaskedvalue="10"/>
        <field name="tcp.flags.urg" showname=".... ..0. .... = Urgent: Not set" size="1" pos="47" show="0" value="0" unmaskedvalue="10"/>
        <field name="tcp.flags.ack" showname=".... ...1 .... = Acknowledgement: Set" size="1" pos="47" show="1" value="1" unmaskedvalue="10"/>
        <field name="tcp.flags.push" showname=".... .... 0... = Push: Not set" size="1" pos="47" show="0" value="0" unmaskedvalue="10"/>
        <field name="tcp.flags.reset" showname=".... .... .0.. = Reset: Not set" size="1" pos="47" show="0" value="0" unmaskedvalue="10"/>
        <field name="tcp.flags.syn" showname=".... .... ..0. = Syn: Not set" size="1" pos="47" show="0" value="0" unmaskedvalue="10"/>
        <field name="tcp.flags.fin" showname=".... .... ...0 = Fin: Not set" size="1" pos="47" show="0" value="0" unmaskedvalue="10"/>
      </field>
      <field name="tcp.window_size_value" showname="Window size value: 307" size="2" pos="48" show="307" value="0133"/>
      <field name="tcp.window_size" showname="Calculated window size: 39296" size="2" pos="48" show="39296" value="0133"/>
      <field name="tcp.window_size_scalefactor" showname="Window size scaling factor: 128" size="2" pos="48" show="128" value="0133"/>
      <field name="tcp.checksum" showname="Checksum: 0xfe28 [validation disabled]" size="2" pos="50" show="0xfe28" value="fe28">
        <field name="tcp.checksum_good" showname="Good Checksum: False" size="2" pos="50" show="0" value="fe28"/>
        <field name="tcp.checksum_bad" showname="Bad Checksum: False" size="2" pos="50" show="0" value="fe28"/>
      </field>
      <field name="tcp.options" showname="Options: (12 bytes)" size="12" pos="54" show="01:01:08:0a:00:14:23:81:00:14:23:77" value="0101080a0014238100142377">
        <field name="" show="No-Operation (NOP)" size="1" pos="54" value="01"/>
        <field name="" show="No-Operation (NOP)" size="1" pos="55" value="01"/>
        <field name="" show="Timestamps: TSval 1319809, TSecr 1319799" size="10" pos="56" value="080a0014238100142377">
          <field name="tcp.option_kind" showname="Kind: Timestamp (8)" size="1" pos="56" show="8" value="08"/>
          <field name="tcp.option_len" showname="Length: 10" size="1" pos="57" show="10" value="0a"/>
          <field name="tcp.options.timestamp.tsval" showname="Timestamp value: 1319809" size="4" pos="58" show="1319809" value="00142381"/>
          <field name="tcp.options.timestamp.tsecr" showname="Timestamp echo reply: 1319799" size="4" pos="62" show="1319799" value="00142377"/>
        </field>
      </field>
      <field name="" show="SEQ/ACK analysis" size="0" pos="34" value="">
        <field name="tcp.analysis.acks_frame" showname="This is an ACK to the segment in frame: 86" size="0" pos="34" show="86"/>
        <field name="tcp.analysis.ack_rtt" showname="The RTT to ACK the segment was: 0.038058000 seconds" size="0" pos="34" show="0.038058000"/>
      </field>
    </proto>
  </packet>
  <packet>
    <proto name="geninfo" pos="0" showname="General information" size="66">
      <field name="num" pos="0" show="160" showname="Number" value="a0" size="66"/>
      <field name="len" pos="0" show="66" showname="Frame Length" value="42" size="66"/>
      <field name="caplen" pos="0" show="66" showname="Captured Length" value="42" size="66"/>
      <field name="timestamp" pos="0" show="Apr 20, 2012 09:11:11.275728000 CEST" showname="Captured Time" value="1334905871.275728000" size="66"/>
    </proto>
    <proto name="frame" showname="Frame 160: 66 bytes on wire (528 bits), 66 bytes captured (528 bits)" size="66" pos="0">
      <field name="frame.time" showname="Arrival Time: Apr 20, 2012 09:11:11.275728000 CEST" size="0" pos="0" show="Apr 20, 2012 09:11:11.275728000"/>
      <field name="frame.time_epoch" showname="Epoch Time: 1334905871.275728000 seconds" size="0" pos="0" show="1334905871.275728000"/>
      <field name="frame.time_delta" showname="Time delta from previous captured frame: 0.000002000 seconds" size="0" pos="0" show="0.000002000"/>
      <field name="frame.time_delta_displayed" showname="Time delta from previous displayed frame: 0.000002000 seconds" size="0" pos="0" show="0.000002000"/>
      <field name="frame.time_relative" showname="Time since reference or first frame: 3.821534000 seconds" size="0" pos="0" show="3.821534000"/>
      <field name="frame.number" showname="Frame Number: 160" size="0" pos="0" show="160"/>
      <field name="frame.len" showname="Frame Length: 66 bytes (528 bits)" size="0" pos="0" show="66"/>
      <field name="frame.cap_len" showname="Capture Length: 66 bytes (528 bits)" size="0" pos="0" show="66"/>
      <field name="frame.marked" showname="Frame is marked: False" size="0" pos="0" show="0"/>
      <field name="frame.ignored" showname="Frame is ignored: False" size="0" pos="0" show="0"/>
      <field name="frame.protocols" showname="Protocols in frame: eth:ip:tcp" size="0" pos="0" show="eth:ip:tcp"/>
    </proto>
    <proto name="eth" showname="Ethernet II, Src: 00:00:00_00:00:00 (00:00:00:00:00:00), Dst: 00:00:00_00:00:00 (00:00:00:00:00:00)" size="14" pos="0">
      <field name="eth.dst" showname="Destination: 00:00:00_00:00:00 (00:00:00:00:00:00)" size="6" pos="0" show="00:00:00:00:00:00" value="000000000000">
        <field name="eth.addr" showname="Address: 00:00:00_00:00:00 (00:00:00:00:00:00)" size="6" pos="0" show="00:00:00:00:00:00" value="000000000000"/>
        <field name="eth.ig" showname=".... ...0 .... .... .... .... = IG bit: Individual address (unicast)" size="3" pos="0" show="0" value="0" unmaskedvalue="000000"/>
        <field name="eth.lg" showname=".... ..0. .... .... .... .... = LG bit: Globally unique address (factory default)" size="3" pos="0" show="0" value="0" unmaskedvalue="000000"/>
      </field>
      <field name="eth.src" showname="Source: 00:00:00_00:00:00 (00:00:00:00:00:00)" size="6" pos="6" show="00:00:00:00:00:00" value="000000000000">
        <field name="eth.addr" showname="Address: 00:00:00_00:00:00 (00:00:00:00:00:00)" size="6" pos="6" show="00:00:00:00:00:00" value="000000000000"/>
        <field name="eth.ig" showname=".... ...0 .... .... .... .... = IG bit: Individual address (unicast)" size="3" pos="6" show="0" value="0" unmaskedvalue="000000"/>
        <field name="eth.lg" showname=".... ..0. .... .... .... .... = LG bit: Globally unique address (factory default)" size="3" pos="6" show="0" value="0" unmaskedvalue="000000"/>
      </field>
      <field name="eth.type" showname="Type: IP (0x0800)" size="2" pos="12" show="0x0800" value="0800"/>
    </proto>
    <proto name="ip" showname="Internet Protocol Version 4, Src: 127.0.0.1 (127.0.0.1), Dst: 127.0.0.1 (127.0.0.1)" size="20" pos="14">
      <field name="ip.version" showname="Version: 4" size="1" pos="14" show="4" value="45"/>
      <field name="ip.hdr_len" showname="Header length: 20 bytes" size="1" pos="14" show="20" value="45"/>
      <field name="ip.dsfield" showname="Differentiated Services Field: 0x00 (DSCP 0x00: Default; ECN: 0x00: Not-ECT (Not ECN-Capable Transport))" size="1" pos="15" show="0" value="00">
        <field name="ip.dsfield.dscp" showname="0000 00.. = Differentiated Services Codepoint: Default (0x00)" size="1" pos="15" show="0x00" value="0" unmaskedvalue="00"/>
        <field name="ip.dsfield.ecn" showname=".... ..00 = Explicit Congestion Notification: Not-ECT (Not ECN-Capable Transport) (0x00)" size="1" pos="15" show="0x00" value="0" unmaskedvalue="00"/>
      </field>
      <field name="ip.len" showname="Total Length: 52" size="2" pos="16" show="52" value="0034"/>
      <field name="ip.id" showname="Identification: 0x7f64 (32612)" size="2" pos="18" show="0x7f64" value="7f64"/>
      <field name="ip.flags" showname="Flags: 0x02 (Don't Fragment)" size="1" pos="20" show="0x02" value="40">
        <field name="ip.flags.rb" showname="0... .... = Reserved bit: Not set" size="1" pos="20" show="0" value="40"/>
        <field name="ip.flags.df" showname=".1.. .... = Don't fragment: Set" size="1" pos="20" show="1" value="40"/>
        <field name="ip.flags.mf" showname="..0. .... = More fragments: Not set" size="1" pos="20" show="0" value="40"/>
      </field>
      <field name="ip.frag_offset" showname="Fragment offset: 0" size="2" pos="20" show="0" value="4000"/>
      <field name="ip.ttl" showname="Time to live: 64" size="1" pos="22" show="64" value="40"/>
      <field name="ip.proto" showname="Protocol: TCP (6)" size="1" pos="23" show="6" value="06"/>
      <field name="ip.checksum" showname="Header checksum: 0xbd5d [correct]" size="2" pos="24" show="0xbd5d" value="bd5d">
        <field name="ip.checksum_good" showname="Good: True" size="2" pos="24" show="1" value="bd5d"/>
        <field name="ip.checksum_bad" showname="Bad: False" size="2" pos="24" show="0" value="bd5d"/>
      </field>
      <field name="ip.src" showname="Source: 127.0.0.1 (127.0.0.1)" size="4" pos="26" show="127.0.0.1" value="7f000001"/>
      <field name="ip.addr" showname="Source or Destination Address: 127.0.0.1 (127.0.0.1)" hide="yes" size="4" pos="26" show="127.0.0.1" value="7f000001"/>
      <field name="ip.src_host" showname="Source Host: 127.0.0.1" hide="yes" size="4" pos="26" show="127.0.0.1" value="7f000001"/>
      <field name="ip.host" showname="Source or Destination Host: 127.0.0.1" hide="yes" size="4" pos="26" show="127.0.0.1" value="7f000001"/>
      <field name="ip.dst" showname="Destination: 127.0.0.1 (127.0.0.1)" size="4" pos="30" show="127.0.0.1" value="7f000001"/>
      <field name="ip.addr" showname="Source or Destination Address: 127.0.0.1 (127.0.0.1)" hide="yes" size="4" pos="30" show="127.0.0.1" value="7f000001"/>
      <field name="ip.dst_host" showname="Destination Host: 127.0.0.1" hide="yes" size="4" pos="30" show="127.0.0.1" value="7f000001"/>
      <field name="ip.host" showname="Source or Destination Host: 127.0.0.1" hide="yes" size="4" pos="30" show="127.0.0.1" value="7f000001"/>
    </proto>
    <proto name="tcp" showname="Transmission Control Protocol, Src Port: 37097 (37097), Dst Port: http (80), Seq: 1950, Ack: 2274, Len: 0" size="32" pos="34">
      <field name="tcp.srcport" showname="Source port: 37097 (37097)" size="2" pos="34" show="37097" value="90e9"/>
      <field name="tcp.dstport" showname="Destination port: http (80)" size="2" pos="36" show="80" value="0050"/>
      <field name="tcp.port" showname="Source or Destination Port: 37097" hide="yes" size="2" pos="34" show="37097" value="90e9"/>
      <field name="tcp.port" showname="Source or Destination Port: 80" hide="yes" size="2" pos="36" show="80" value="0050"/>
      <field name="tcp.stream" showname="Stream index: 5" size="0" pos="34" show="5"/>
      <field name="tcp.len" showname="TCP Segment Len: 0" hide="yes" size="1" pos="46" show="0" value="80"/>
      <field name="tcp.seq" showname="Sequence number: 1950    (relative sequence number)" size="4" pos="38" show="1950" value="887163a0"/>
      <field name="tcp.ack" showname="Acknowledgement number: 2274    (relative ack number)" size="4" pos="42" show="2274" value="0e2c8bfb"/>
      <field name="tcp.hdr_len" showname="Header length: 32 bytes" size="1" pos="46" show="32" value="80"/>
      <field name="tcp.flags" showname="Flags: 0x11 (FIN, ACK)" size="2" pos="46" show="0x11" value="8011">
        <field name="tcp.flags.res" showname="000. .... .... = Reserved: Not set" size="1" pos="46" show="0" value="0" unmaskedvalue="80"/>
        <field name="tcp.flags.ns" showname="...0 .... .... = Nonce: Not set" size="1" pos="46" show="0" value="0" unmaskedvalue="80"/>
        <field name="tcp.flags.cwr" showname=".... 0... .... = Congestion Window Reduced (CWR): Not set" size="1" pos="47" show="0" value="0" unmaskedvalue="11"/>
        <field name="tcp.flags.ecn" showname=".... .0.. .... = ECN-Echo: Not set" size="1" pos="47" show="0" value="0" unmaskedvalue="11"/>
        <field name="tcp.flags.urg" showname=".... ..0. .... = Urgent: Not set" size="1" pos="47" show="0" value="0" unmaskedvalue="11"/>
        <field name="tcp.flags.ack" showname=".... ...1 .... = Acknowledgement: Set" size="1" pos="47" show="1" value="1" unmaskedvalue="11"/>
        <field name="tcp.flags.push" showname=".... .... 0... = Push: Not set" size="1" pos="47" show="0" value="0" unmaskedvalue="11"/>
        <field name="tcp.flags.reset" showname=".... .... .0.. = Reset: Not set" size="1" pos="47" show="0" value="0" unmaskedvalue="11"/>
        <field name="tcp.flags.syn" showname=".... .... ..0. = Syn: Not set" size="1" pos="47" show="0" value="0" unmaskedvalue="11"/>
        <field name="tcp.flags.fin" showname=".... .... ...1 = Fin: Set" size="1" pos="47" show="1" value="1" unmaskedvalue="11">
          <proto name="expert" showname="Expert Info (Chat/Sequence): Connection finish (FIN)" size="0" pos="0">
            <field name="expert.message" showname="Message: Connection finish (FIN)" size="0" pos="0" show="Connection finish (FIN)"/>
            <field name="expert.severity" showname="Severity level: Chat" size="0" pos="0" show="Chat"/>
            <field name="expert.group" showname="Group: Sequence" size="0" pos="0" show="Sequence"/>
          </proto>
        </field>
      </field>
      <field name="tcp.window_size_value" showname="Window size value: 307" size="2" pos="48" show="307" value="0133"/>
      <field name="tcp.window_size" showname="Calculated window size: 39296" size="2" pos="48" show="39296" value="0133"/>
      <field name="tcp.window_size_scalefactor" showname="Window size scaling factor: 128" size="2" pos="48" show="128" value="0133"/>
      <field name="tcp.checksum" showname="Checksum: 0xfe28 [validation disabled]" size="2" pos="50" show="0xfe28" value="fe28">
        <field name="tcp.checksum_good" showname="Good Checksum: False" size="2" pos="50" show="0" value="fe28"/>
        <field name="tcp.checksum_bad" showname="Bad Checksum: False" size="2" pos="50" show="0" value="fe28"/>
      </field>
      <field name="tcp.options" showname="Options: (12 bytes)" size="12" pos="54" show="01:01:08:0a:00:14:27:19:00:14:23:77" value="0101080a0014271900142377">
        <field name="" show="No-Operation (NOP)" size="1" pos="54" value="01"/>
        <field name="" show="No-Operation (NOP)" size="1" pos="55" value="01"/>
        <field name="" show="Timestamps: TSval 1320729, TSecr 1319799" size="10" pos="56" value="080a0014271900142377">
          <field name="tcp.option_kind" showname="Kind: Timestamp (8)" size="1" pos="56" show="8" value="08"/>
          <field name="tcp.option_len" showname="Length: 10" size="1" pos="57" show="10" value="0a"/>
          <field name="tcp.options.timestamp.tsval" showname="Timestamp value: 1320729" size="4" pos="58" show="1320729" value="00142719"/>
          <field name="tcp.options.timestamp.tsecr" showname="Timestamp echo reply: 1319799" size="4" pos="62" show="1319799" value="00142377"/>
        </field>
      </field>
    </proto>
  </packet>
  <packet>
    <proto name="geninfo" pos="0" showname="General information" size="66">
      <field name="num" pos="0" show="175" showname="Number" value="af" size="66"/>
      <field name="len" pos="0" show="66" showname="Frame Length" value="42" size="66"/>
      <field name="caplen" pos="0" show="66" showname="Captured Length" value="42" size="66"/>
      <field name="timestamp" pos="0" show="Apr 20, 2012 09:11:11.275867000 CEST" showname="Captured Time" value="1334905871.275867000" size="66"/>
    </proto>
    <proto name="frame" showname="Frame 175: 66 bytes on wire (528 bits), 66 bytes captured (528 bits)" size="66" pos="0">
      <field name="frame.time" showname="Arrival Time: Apr 20, 2012 09:11:11.275867000 CEST" size="0" pos="0" show="Apr 20, 2012 09:11:11.275867000"/>
      <field name="frame.time_epoch" showname="Epoch Time: 1334905871.275867000 seconds" size="0" pos="0" show="1334905871.275867000"/>
      <field name="frame.time_delta" showname="Time delta from previous captured frame: 0.000015000 seconds" size="0" pos="0" show="0.000015000"/>
      <field name="frame.time_delta_displayed" showname="Time delta from previous displayed frame: 0.000015000 seconds" size="0" pos="0" show="0.000015000"/>
      <field name="frame.time_relative" showname="Time since reference or first frame: 3.821673000 seconds" size="0" pos="0" show="3.821673000"/>
      <field name="frame.number" showname="Frame Number: 175" size="0" pos="0" show="175"/>
      <field name="frame.len" showname="Frame Length: 66 bytes (528 bits)" size="0" pos="0" show="66"/>
      <field name="frame.cap_len" showname="Capture Length: 66 bytes (528 bits)" size="0" pos="0" show="66"/>
      <field name="frame.marked" showname="Frame is marked: False" size="0" pos="0" show="0"/>
      <field name="frame.ignored" showname="Frame is ignored: False" size="0" pos="0" show="0"/>
      <field name="frame.protocols" showname="Protocols in frame: eth:ip:tcp:http:media" size="0" pos="0" show="eth:ip:tcp:http:media"/>
    </proto>
    <proto name="eth" showname="Ethernet II, Src: 00:00:00_00:00:00 (00:00:00:00:00:00), Dst: 00:00:00_00:00:00 (00:00:00:00:00:00)" size="14" pos="0">
      <field name="eth.dst" showname="Destination: 00:00:00_00:00:00 (00:00:00:00:00:00)" size="6" pos="0" show="00:00:00:00:00:00" value="000000000000">
        <field name="eth.addr" showname="Address: 00:00:00_00:00:00 (00:00:00:00:00:00)" size="6" pos="0" show="00:00:00:00:00:00" value="000000000000"/>
        <field name="eth.ig" showname=".... ...0 .... .... .... .... = IG bit: Individual address (unicast)" size="3" pos="0" show="0" value="0" unmaskedvalue="000000"/>
        <field name="eth.lg" showname=".... ..0. .... .... .... .... = LG bit: Globally unique address (factory default)" size="3" pos="0" show="0" value="0" unmaskedvalue="000000"/>
      </field>
      <field name="eth.src" showname="Source: 00:00:00_00:00:00 (00:00:00:00:00:00)" size="6" pos="6" show="00:00:00:00:00:00" value="000000000000">
        <field name="eth.addr" showname="Address: 00:00:00_00:00:00 (00:00:00:00:00:00)" size="6" pos="6" show="00:00:00:00:00:00" value="000000000000"/>
        <field name="eth.ig" showname=".... ...0 .... .... .... .... = IG bit: Individual address (unicast)" size="3" pos="6" show="0" value="0" unmaskedvalue="000000"/>
        <field name="eth.lg" showname=".... ..0. .... .... .... .... = LG bit: Globally unique address (factory default)" size="3" pos="6" show="0" value="0" unmaskedvalue="000000"/>
      </field>
      <field name="eth.type" showname="Type: IP (0x0800)" size="2" pos="12" show="0x0800" value="0800"/>
    </proto>
    <proto name="ip" showname="Internet Protocol Version 4, Src: 127.0.0.1 (127.0.0.1), Dst: 127.0.0.1 (127.0.0.1)" size="20" pos="14">
      <field name="ip.version" showname="Version: 4" size="1" pos="14" show="4" value="45"/>
      <field name="ip.hdr_len" showname="Header length: 20 bytes" size="1" pos="14" show="20" value="45"/>
      <field name="ip.dsfield" showname="Differentiated Services Field: 0x00 (DSCP 0x00: Default; ECN: 0x00: Not-ECT (Not ECN-Capable Transport))" size="1" pos="15" show="0" value="00">
        <field name="ip.dsfield.dscp" showname="0000 00.. = Differentiated Services Codepoint: Default (0x00)" size="1" pos="15" show="0x00" value="0" unmaskedvalue="00"/>
        <field name="ip.dsfield.ecn" showname=".... ..00 = Explicit Congestion Notification: Not-ECT (Not ECN-Capable Transport) (0x00)" size="1" pos="15" show="0x00" value="0" unmaskedvalue="00"/>
      </field>
      <field name="ip.len" showname="Total Length: 52" size="2" pos="16" show="52" value="0034"/>
      <field name="ip.id" showname="Identification: 0xa049 (41033)" size="2" pos="18" show="0xa049" value="a049"/>
      <field name="ip.flags" showname="Flags: 0x02 (Don't Fragment)" size="1" pos="20" show="0x02" value="40">
        <field name="ip.flags.rb" showname="0... .... = Reserved bit: Not set" size="1" pos="20" show="0" value="40"/>
        <field name="ip.flags.df" showname=".1.. .... = Don't fragment: Set" size="1" pos="20" show="1" value="40"/>
        <field name="ip.flags.mf" showname="..0. .... = More fragments: Not set" size="1" pos="20" show="0" value="40"/>
      </field>
      <field name="ip.frag_offset" showname="Fragment offset: 0" size="2" pos="20" show="0" value="4000"/>
      <field name="ip.ttl" showname="Time to live: 64" size="1" pos="22" show="64" value="40"/>
      <field name="ip.proto" showname="Protocol: TCP (6)" size="1" pos="23" show="6" value="06"/>
      <field name="ip.checksum" showname="Header checksum: 0x9c78 [correct]" size="2" pos="24" show="0x9c78" value="9c78">
        <field name="ip.checksum_good" showname="Good: True" size="2" pos="24" show="1" value="9c78"/>
        <field name="ip.checksum_bad" showname="Bad: False" size="2" pos="24" show="0" value="9c78"/>
      </field>
      <field name="ip.src" showname="Source: 127.0.0.1 (127.0.0.1)" size="4" pos="26" show="127.0.0.1" value="7f000001"/>
      <field name="ip.addr" showname="Source or Destination Address: 127.0.0.1 (127.0.0.1)" hide="yes" size="4" pos="26" show="127.0.0.1" value="7f000001"/>
      <field name="ip.src_host" showname="Source Host: 127.0.0.1" hide="yes" size="4" pos="26" show="127.0.0.1" value="7f000001"/>
      <field name="ip.host" showname="Source or Destination Host: 127.0.0.1" hide="yes" size="4" pos="26" show="127.0.0.1" value="7f000001"/>
      <field name="ip.dst" showname="Destination: 127.0.0.1 (127.0.0.1)" size="4" pos="30" show="127.0.0.1" value="7f000001"/>
      <field name="ip.addr" showname="Source or Destination Address: 127.0.0.1 (127.0.0.1)" hide="yes" size="4" pos="30" show="127.0.0.1" value="7f000001"/>
      <field name="ip.dst_host" showname="Destination Host: 127.0.0.1" hide="yes" size="4" pos="30" show="127.0.0.1" value="7f000001"/>
      <field name="ip.host" showname="Source or Destination Host: 127.0.0.1" hide="yes" size="4" pos="30" show="127.0.0.1" value="7f000001"/>
    </proto>
    <proto name="tcp" showname="Transmission Control Protocol, Src Port: http (80), Dst Port: 37097 (37097), Seq: 2274, Ack: 1951, Len: 0" size="32" pos="34">
      <field name="tcp.srcport" showname="Source port: http (80)" size="2" pos="34" show="80" value="0050"/>
      <field name="tcp.dstport" showname="Destination port: 37097 (37097)" size="2" pos="36" show="37097" value="90e9"/>
      <field name="tcp.port" showname="Source or Destination Port: 80" hide="yes" size="2" pos="34" show="80" value="0050"/>
      <field name="tcp.port" showname="Source or Destination Port: 37097" hide="yes" size="2" pos="36" show="37097" value="90e9"/>
      <field name="tcp.stream" showname="Stream index: 5" size="0" pos="34" show="5"/>
      <field name="tcp.len" showname="TCP Segment Len: 0" hide="yes" size="1" pos="46" show="0" value="80"/>
      <field name="tcp.seq" showname="Sequence number: 2274    (relative sequence number)" size="4" pos="38" show="2274" value="0e2c8bfb"/>
      <field name="tcp.ack" showname="Acknowledgement number: 1951    (relative ack number)" size="4" pos="42" show="1951" value="887163a1"/>
      <field name="tcp.hdr_len" showname="Header length: 32 bytes" size="1" pos="46" show="32" value="80"/>
      <field name="tcp.flags" showname="Flags: 0x11 (FIN, ACK)" size="2" pos="46" show="0x11" value="8011">
        <field name="tcp.flags.res" showname="000. .... .... = Reserved: Not set" size="1" pos="46" show="0" value="0" unmaskedvalue="80"/>
        <field name="tcp.flags.ns" showname="...0 .... .... = Nonce: Not set" size="1" pos="46" show="0" value="0" unmaskedvalue="80"/>
        <field name="tcp.flags.cwr" showname=".... 0... .... = Congestion Window Reduced (CWR): Not set" size="1" pos="47" show="0" value="0" unmaskedvalue="11"/>
        <field name="tcp.flags.ecn" showname=".... .0.. .... = ECN-Echo: Not set" size="1" pos="47" show="0" value="0" unmaskedvalue="11"/>
        <field name="tcp.flags.urg" showname=".... ..0. .... = Urgent: Not set" size="1" pos="47" show="0" value="0" unmaskedvalue="11"/>
        <field name="tcp.flags.ack" showname=".... ...1 .... = Acknowledgement: Set" size="1" pos="47" show="1" value="1" unmaskedvalue="11"/>
        <field name="tcp.flags.push" showname=".... .... 0... = Push: Not set" size="1" pos="47" show="0" value="0" unmaskedvalue="11"/>
        <field name="tcp.flags.reset" showname=".... .... .0.. = Reset: Not set" size="1" pos="47" show="0" value="0" unmaskedvalue="11"/>
        <field name="tcp.flags.syn" showname=".... .... ..0. = Syn: Not set" size="1" pos="47" show="0" value="0" unmaskedvalue="11"/>
        <field name="tcp.flags.fin" showname=".... .... ...1 = Fin: Set" size="1" pos="47" show="1" value="1" unmaskedvalue="11">
          <proto name="expert" showname="Expert Info (Chat/Sequence): Connection finish (FIN)" size="0" pos="0">
            <field name="expert.message" showname="Message: Connection finish (FIN)" size="0" pos="0" show="Connection finish (FIN)"/>
            <field name="expert.severity" showname="Severity level: Chat" size="0" pos="0" show="Chat"/>
            <field name="expert.group" showname="Group: Sequence" size="0" pos="0" show="Sequence"/>
          </proto>
        </field>
      </field>
      <field name="tcp.window_size_value" showname="Window size value: 290" size="2" pos="48" show="290" value="0122"/>
      <field name="tcp.window_size" showname="Calculated window size: 37120" size="2" pos="48" show="37120" value="0122"/>
      <field name="tcp.window_size_scalefactor" showname="Window size scaling factor: 128" size="2" pos="48" show="128" value="0122"/>
      <field name="tcp.checksum" showname="Checksum: 0xfe28 [validation disabled]" size="2" pos="50" show="0xfe28" value="fe28">
        <field name="tcp.checksum_good" showname="Good Checksum: False" size="2" pos="50" show="0" value="fe28"/>
        <field name="tcp.checksum_bad" showname="Bad Checksum: False" size="2" pos="50" show="0" value="fe28"/>
      </field>
      <field name="tcp.options" showname="Options: (12 bytes)" size="12" pos="54" show="01:01:08:0a:00:14:27:19:00:14:27:19" value="0101080a0014271900142719">
        <field name="" show="No-Operation (NOP)" size="1" pos="54" value="01"/>
        <field name="" show="No-Operation (NOP)" size="1" pos="55" value="01"/>
        <field name="" show="Timestamps: TSval 1320729, TSecr 1320729" size="10" pos="56" value="080a0014271900142719">
          <field name="tcp.option_kind" showname="Kind: Timestamp (8)" size="1" pos="56" show="8" value="08"/>
          <field name="tcp.option_len" showname="Length: 10" size="1" pos="57" show="10" value="0a"/>
          <field name="tcp.options.timestamp.tsval" showname="Timestamp value: 1320729" size="4" pos="58" show="1320729" value="00142719"/>
          <field name="tcp.options.timestamp.tsecr" showname="Timestamp echo reply: 1320729" size="4" pos="62" show="1320729" value="00142719"/>
        </field>
      </field>
      <field name="" show="SEQ/ACK analysis" size="0" pos="34" value="">
        <field name="tcp.analysis.acks_frame" showname="This is an ACK to the segment in frame: 160" size="0" pos="34" show="160"/>
        <field name="tcp.analysis.ack_rtt" showname="The RTT to ACK the segment was: 0.000139000 seconds" size="0" pos="34" show="0.000139000"/>
      </field>
    </proto>
    <proto name="fake-field-wrapper">
      <field name="tcp.segments" showname="5 Reassembled TCP Segments (2273 bytes): #53(217), #64(217), #72(217), #86(1622), #175(0)" size="2273" pos="0" show="" value="">
        <field name="tcp.segment" showname="Frame: 53, payload: 0-216 (217 bytes)" size="217" pos="0" show="53" value="485454502f312e3120333034204e6f74204d6f6469666965640d0a436f6e74656e742d547970653a206170706c69636174696f6e2f6a6176617363726970740d0a4163636570742d52616e6765733a2062797465730d0a455461673a202232393035313634313230220d0a4c6173742d4d6f6469666965643a205765642c203231204d617220323031322031393a34363a353620474d540d0a446174653a204672692c2032302041707220323031322030373a31313a303720474d540d0a5365727665723a206c696768747470642f312e342e32380d0a0d0a"/>
        <field name="tcp.segment" showname="Frame: 64, payload: 217-433 (217 bytes)" size="217" pos="217" show="64" value="485454502f312e3120333034204e6f74204d6f6469666965640d0a436f6e74656e742d547970653a206170706c69636174696f6e2f6a6176617363726970740d0a4163636570742d52616e6765733a2062797465730d0a455461673a202232323035343033333532220d0a4c6173742d4d6f6469666965643a205765642c203231204d617220323031322030393a33303a353820474d540d0a446174653a204672692c2032302041707220323031322030373a31313a303720474d540d0a5365727665723a206c696768747470642f312e342e32380d0a0d0a"/>
        <field name="tcp.segment" showname="Frame: 72, payload: 434-650 (217 bytes)" size="217" pos="434" show="72" value="485454502f312e3120333034204e6f74204d6f6469666965640d0a436f6e74656e742d547970653a206170706c69636174696f6e2f6a6176617363726970740d0a4163636570742d52616e6765733a2062797465730d0a455461673a202232393239313837353533220d0a4c6173742d4d6f6469666965643a205475652c203237204d617220323031322030363a33323a303720474d540d0a446174653a204672692c2032302041707220323031322030373a31313a303720474d540d0a5365727665723a206c696768747470642f312e342e32380d0a0d0a"/>
        <field name="tcp.segment" showname="Frame: 86, payload: 651-2272 (1622 bytes)" size="1622" pos="651" show="86" value="485454502f312e3120323030204f4b0d0a436f6e74656e742d547970653a206170706c69636174696f6e2f6a6176617363726970740d0a4163636570742d52616e6765733a2062797465730d0a455461673a202233343737333332313438220d0a4c6173742d4d6f6469666965643a204d6f6e2c2030322041707220323031322030373a31343a343920474d540d0a436f6e74656e742d4c656e6774683a20313339330d0a446174653a204672692c2032302041707220323031322030373a31313a303720474d540d0a5365727665723a206c696768747470642f312e342e32380d0a0d0a2f2a676c6f62616c206a51756572793a2066616c73652c205075707065746565723a2066616c73652c20706172736555524c3a2066616c7365202a2f0a0a2f2f20476c6f62616c6c7920617661696c61626c65207661726961626c65730a76617220486973746f72793b0a76617220676c616d73746572203d207b7d3b0a0a6a517565727928292e72656164792866756e6374696f6e2829207b0a202020202275736520737472696374223b0a0a202020202f2f20496e6974696c69616c697a65206170706c69636174696f6e0a2020202076617220617070202020203d206e6577205075707065746565722e41707028292c0a2020202020202020726f75746572203d206e6577205075707065746565722e526f7574657228205b0a2020202020202020202020207b2020206e616d653a202020226d61696e222c0a202020202020202020202020202020207265676578703a202f5e5c2f242f207d2c0a2020202020202020202020207b2020206e616d653a20202022736561726368222c0a202020202020202020202020202020207265676578703a202f5e5c2f735c2f282e2a29242f207d2c0a2020202020202020202020207b2020206e616d653a2020202270726f64756374222c0a202020202020202020202020202020207265676578703a202f5e5c2f705c2f285b302d395d2b295c2f2f207d2c0a2020202020202020202020207b2020206e616d653a2020202265786974222c0a202020202020202020202020202020207265676578703a202f5e5c2f657869745c2f285b612d7a5d2b295c2f285b302d395d2b29242f207d2c0a2020202020202020202020207b2020206e616d653a20202022343034222c0a202020202020202020202020202020207265676578703a202f2e2f207d0a202020205d20293b0a0a20202020676c616d737465722e686f73745265676973747279203d206e6577205075707065746565722e686f7374526567697374727928207b0a202020202020202022736561726368223a2020202020202022666173222c0a2020202020202020226462223a2020202020202020202020226170692e73746f72616765222c0a2020202020202020226175746f636f6d706c657465223a20226175746f636f6d706c657465222c0a20202020202020202275726c223a20202020202020202020226170692e75726c222c0a20202020202020202273657373696f6e223a202020202020226170692e73657373696f6e220a202020207d20293b0a0a0a202020202f2f205374617274206170706c69636174696f6e2066726f6d2063757272656e746c7920636c69636b6564202f20757365642055524c0a202020202866756e6374696f6e282077696e646f772029207b0a2020202020202020486973746f7279203d2077696e646f772e486973746f72793b0a0a20202020202020202f2f2042696e6420746f2053746174654368616e6765204576656e740a2020202020202020486973746f72792e416461707465722e62696e64282077696e646f772c202773746174656368616e6765272c2066756e6374696f6e202829207b0a202020202020202020202020766172205374617465203d20486973746f72792e676574537461746528293b0a202020202020202020202020726f757465722e726f7574652820706172736555524c28206c6f636174696f6e2e68726566202920293b0a20202020202020207d293b0a0a20202020202020206a5175657279282077696e646f7720292e7472696767657228202273746174656368616e67652220293b0a20202020202020206a5175657279282077696e646f7720292e74726967676572282022636f6e74656e744c6f61646564222c2022626f64792220293b0a0a202020207d282077696e646f77202920293b0a7d20293b0a"/>
        <field name="tcp.segment" showname="Frame: 175 (no data)" size="0" pos="2273" show="175"/>
        <field name="tcp.segment.count" showname="Segment count: 5" size="0" pos="0" show="5"/>
        <field name="tcp.reassembled.length" showname="Reassembled TCP length: 2273" size="0" pos="0" show="2273"/>
      </field>
    </proto>
    <proto name="http" showname="Hypertext Transfer Protocol" size="2273" pos="0">
      <field name="" show="HTTP/1.1 304 Not Modified\r\n" size="27" pos="0" value="485454502f312e3120333034204e6f74204d6f6469666965640d0a">
        <proto name="expert" showname="Expert Info (Chat/Sequence): HTTP/1.1 304 Not Modified\r\n" size="0" pos="0">
          <field name="expert.message" showname="Message: HTTP/1.1 304 Not Modified\r\n" size="0" pos="0" show="HTTP/1.1 304 Not Modified\\r\\n"/>
          <field name="expert.severity" showname="Severity level: Chat" size="0" pos="0" show="Chat"/>
          <field name="expert.group" showname="Group: Sequence" size="0" pos="0" show="Sequence"/>
        </proto>
        <field name="http.request.version" showname="Request Version: HTTP/1.1" size="8" pos="0" show="HTTP/1.1" value="485454502f312e31"/>
        <field name="http.response.code" showname="Status Code: 304" size="3" pos="9" show="304" value="333034"/>
        <field name="http.response.phrase" showname="Response Phrase: Not Modified" size="12" pos="13" show="Not Modified" value="4e6f74204d6f646966696564"/>
      </field>
      <field name="http.content_type" showname="Content-Type: application/javascript\r\n" size="38" pos="27" show="application/javascript" value="436f6e74656e742d547970653a206170706c69636174696f6e2f6a6176617363726970740d0a"/>
      <field name="" show="Accept-Ranges: bytes\r\n" size="22" pos="65" value="4163636570742d52616e6765733a2062797465730d0a"/>
      <field name="" show="ETag: &quot;2905164120&quot;\r\n" size="20" pos="87" value="455461673a202232393035313634313230220d0a"/>
      <field name="http.last_modified" showname="Last-Modified: Wed, 21 Mar 2012 19:46:56 GMT\r\n" size="46" pos="107" show="Wed, 21 Mar 2012 19:46:56 GMT" value="4c6173742d4d6f6469666965643a205765642c203231204d617220323031322031393a34363a353620474d540d0a"/>
      <field name="http.date" showname="Date: Fri, 20 Apr 2012 07:11:07 GMT\r\n" size="37" pos="153" show="Fri, 20 Apr 2012 07:11:07 GMT" value="446174653a204672692c2032302041707220323031322030373a31313a303720474d540d0a"/>
      <field name="http.server" showname="Server: lighttpd/1.4.28\r\n" size="25" pos="190" show="lighttpd/1.4.28" value="5365727665723a206c696768747470642f312e342e32380d0a"/>
      <field name="" show="\r\n" size="2" pos="215" value="0d0a"/>
      <field name="http.response" showname="Response: True" hide="yes" size="0" pos="0" show="1"/>
    </proto>
    <proto name="http" showname="Hypertext Transfer Protocol" size="2056" pos="217">
      <field name="" show="HTTP/1.1 304 Not Modified\r\n" size="27" pos="217" value="485454502f312e3120333034204e6f74204d6f6469666965640d0a">
        <proto name="expert" showname="Expert Info (Chat/Sequence): HTTP/1.1 304 Not Modified\r\n" size="0" pos="0">
          <field name="expert.message" showname="Message: HTTP/1.1 304 Not Modified\r\n" size="0" pos="0" show="HTTP/1.1 304 Not Modified\\r\\n"/>
          <field name="expert.severity" showname="Severity level: Chat" size="0" pos="0" show="Chat"/>
          <field name="expert.group" showname="Group: Sequence" size="0" pos="0" show="Sequence"/>
        </proto>
        <field name="http.request.version" showname="Request Version: HTTP/1.1" size="8" pos="217" show="HTTP/1.1" value="485454502f312e31"/>
        <field name="http.response.code" showname="Status Code: 304" size="3" pos="226" show="304" value="333034"/>
        <field name="http.response.phrase" showname="Response Phrase: Not Modified" size="12" pos="230" show="Not Modified" value="4e6f74204d6f646966696564"/>
      </field>
      <field name="http.content_type" showname="Content-Type: application/javascript\r\n" size="38" pos="244" show="application/javascript" value="436f6e74656e742d547970653a206170706c69636174696f6e2f6a6176617363726970740d0a"/>
      <field name="" show="Accept-Ranges: bytes\r\n" size="22" pos="282" value="4163636570742d52616e6765733a2062797465730d0a"/>
      <field name="" show="ETag: &quot;2205403352&quot;\r\n" size="20" pos="304" value="455461673a202232323035343033333532220d0a"/>
      <field name="http.last_modified" showname="Last-Modified: Wed, 21 Mar 2012 09:30:58 GMT\r\n" size="46" pos="324" show="Wed, 21 Mar 2012 09:30:58 GMT" value="4c6173742d4d6f6469666965643a205765642c203231204d617220323031322030393a33303a353820474d540d0a"/>
      <field name="http.date" showname="Date: Fri, 20 Apr 2012 07:11:07 GMT\r\n" size="37" pos="370" show="Fri, 20 Apr 2012 07:11:07 GMT" value="446174653a204672692c2032302041707220323031322030373a31313a303720474d540d0a"/>
      <field name="http.server" showname="Server: lighttpd/1.4.28\r\n" size="25" pos="407" show="lighttpd/1.4.28" value="5365727665723a206c696768747470642f312e342e32380d0a"/>
      <field name="" show="\r\n" size="2" pos="432" value="0d0a"/>
      <field name="http.response" showname="Response: True" hide="yes" size="0" pos="0" show="1"/>
    </proto>
    <proto name="http" showname="Hypertext Transfer Protocol" size="1839" pos="434">
      <field name="" show="HTTP/1.1 304 Not Modified\r\n" size="27" pos="434" value="485454502f312e3120333034204e6f74204d6f6469666965640d0a">
        <proto name="expert" showname="Expert Info (Chat/Sequence): HTTP/1.1 304 Not Modified\r\n" size="0" pos="0">
          <field name="expert.message" showname="Message: HTTP/1.1 304 Not Modified\r\n" size="0" pos="0" show="HTTP/1.1 304 Not Modified\\r\\n"/>
          <field name="expert.severity" showname="Severity level: Chat" size="0" pos="0" show="Chat"/>
          <field name="expert.group" showname="Group: Sequence" size="0" pos="0" show="Sequence"/>
        </proto>
        <field name="http.request.version" showname="Request Version: HTTP/1.1" size="8" pos="434" show="HTTP/1.1" value="485454502f312e31"/>
        <field name="http.response.code" showname="Status Code: 304" size="3" pos="443" show="304" value="333034"/>
        <field name="http.response.phrase" showname="Response Phrase: Not Modified" size="12" pos="447" show="Not Modified" value="4e6f74204d6f646966696564"/>
      </field>
      <field name="http.content_type" showname="Content-Type: application/javascript\r\n" size="38" pos="461" show="application/javascript" value="436f6e74656e742d547970653a206170706c69636174696f6e2f6a6176617363726970740d0a"/>
      <field name="" show="Accept-Ranges: bytes\r\n" size="22" pos="499" value="4163636570742d52616e6765733a2062797465730d0a"/>
      <field name="" show="ETag: &quot;2929187553&quot;\r\n" size="20" pos="521" value="455461673a202232393239313837353533220d0a"/>
      <field name="http.last_modified" showname="Last-Modified: Tue, 27 Mar 2012 06:32:07 GMT\r\n" size="46" pos="541" show="Tue, 27 Mar 2012 06:32:07 GMT" value="4c6173742d4d6f6469666965643a205475652c203237204d617220323031322030363a33323a303720474d540d0a"/>
      <field name="http.date" showname="Date: Fri, 20 Apr 2012 07:11:07 GMT\r\n" size="37" pos="587" show="Fri, 20 Apr 2012 07:11:07 GMT" value="446174653a204672692c2032302041707220323031322030373a31313a303720474d540d0a"/>
      <field name="http.server" showname="Server: lighttpd/1.4.28\r\n" size="25" pos="624" show="lighttpd/1.4.28" value="5365727665723a206c696768747470642f312e342e32380d0a"/>
      <field name="" show="\r\n" size="2" pos="649" value="0d0a"/>
      <field name="http.response" showname="Response: True" hide="yes" size="0" pos="0" show="1"/>
    </proto>
    <proto name="http" showname="Hypertext Transfer Protocol" size="1622" pos="651">
      <field name="" show="HTTP/1.1 200 OK\r\n" size="17" pos="651" value="485454502f312e3120323030204f4b0d0a">
        <proto name="expert" showname="Expert Info (Chat/Sequence): HTTP/1.1 200 OK\r\n" size="0" pos="0">
          <field name="expert.message" showname="Message: HTTP/1.1 200 OK\r\n" size="0" pos="0" show="HTTP/1.1 200 OK\\r\\n"/>
          <field name="expert.severity" showname="Severity level: Chat" size="0" pos="0" show="Chat"/>
          <field name="expert.group" showname="Group: Sequence" size="0" pos="0" show="Sequence"/>
        </proto>
        <field name="http.request.version" showname="Request Version: HTTP/1.1" size="8" pos="651" show="HTTP/1.1" value="485454502f312e31"/>
        <field name="http.response.code" showname="Status Code: 200" size="3" pos="660" show="200" value="323030"/>
        <field name="http.response.phrase" showname="Response Phrase: OK" size="2" pos="664" show="OK" value="4f4b"/>
      </field>
      <field name="http.content_type" showname="Content-Type: application/javascript\r\n" size="38" pos="668" show="application/javascript" value="436f6e74656e742d547970653a206170706c69636174696f6e2f6a6176617363726970740d0a"/>
      <field name="" show="Accept-Ranges: bytes\r\n" size="22" pos="706" value="4163636570742d52616e6765733a2062797465730d0a"/>
      <field name="" show="ETag: &quot;3477332148&quot;\r\n" size="20" pos="728" value="455461673a202233343737333332313438220d0a"/>
      <field name="http.last_modified" showname="Last-Modified: Mon, 02 Apr 2012 07:14:49 GMT\r\n" size="46" pos="748" show="Mon, 02 Apr 2012 07:14:49 GMT" value="4c6173742d4d6f6469666965643a204d6f6e2c2030322041707220323031322030373a31343a343920474d540d0a"/>
      <field name="http.content_length_header" showname="Content-Length: 1393\r\n" size="22" pos="794" show="1393" value="436f6e74656e742d4c656e6774683a20313339330d0a">
        <field name="http.content_length" showname="Content length: 1393" size="22" pos="794" show="1393" value="436f6e74656e742d4c656e6774683a20313339330d0a"/>
      </field>
      <field name="http.date" showname="Date: Fri, 20 Apr 2012 07:11:07 GMT\r\n" size="37" pos="816" show="Fri, 20 Apr 2012 07:11:07 GMT" value="446174653a204672692c2032302041707220323031322030373a31313a303720474d540d0a"/>
      <field name="http.server" showname="Server: lighttpd/1.4.28\r\n" size="25" pos="853" show="lighttpd/1.4.28" value="5365727665723a206c696768747470642f312e342e32380d0a"/>
      <field name="" show="\r\n" size="2" pos="878" value="0d0a"/>
      <field name="http.response" showname="Response: True" hide="yes" size="0" pos="0" show="1"/>
    </proto>
    <proto name="media" showname="Media Type" size="1393" pos="880">
      <field name="" show="Media Type: application/javascript (1393 bytes)" size="1393" pos="880" value="2f2a676c6f62616c206a51756572793a2066616c73652c205075707065746565723a2066616c73652c20706172736555524c3a2066616c7365202a2f0a0a2f2f20476c6f62616c6c7920617661696c61626c65207661726961626c65730a76617220486973746f72793b0a76617220676c616d73746572203d207b7d3b0a0a6a517565727928292e72656164792866756e6374696f6e2829207b0a202020202275736520737472696374223b0a0a202020202f2f20496e6974696c69616c697a65206170706c69636174696f6e0a2020202076617220617070202020203d206e6577205075707065746565722e41707028292c0a2020202020202020726f75746572203d206e6577205075707065746565722e526f7574657228205b0a2020202020202020202020207b2020206e616d653a202020226d61696e222c0a202020202020202020202020202020207265676578703a202f5e5c2f242f207d2c0a2020202020202020202020207b2020206e616d653a20202022736561726368222c0a202020202020202020202020202020207265676578703a202f5e5c2f735c2f282e2a29242f207d2c0a2020202020202020202020207b2020206e616d653a2020202270726f64756374222c0a202020202020202020202020202020207265676578703a202f5e5c2f705c2f285b302d395d2b295c2f2f207d2c0a2020202020202020202020207b2020206e616d653a2020202265786974222c0a202020202020202020202020202020207265676578703a202f5e5c2f657869745c2f285b612d7a5d2b295c2f285b302d395d2b29242f207d2c0a2020202020202020202020207b2020206e616d653a20202022343034222c0a202020202020202020202020202020207265676578703a202f2e2f207d0a202020205d20293b0a0a20202020676c616d737465722e686f73745265676973747279203d206e6577205075707065746565722e686f7374526567697374727928207b0a202020202020202022736561726368223a2020202020202022666173222c0a2020202020202020226462223a2020202020202020202020226170692e73746f72616765222c0a2020202020202020226175746f636f6d706c657465223a20226175746f636f6d706c657465222c0a20202020202020202275726c223a20202020202020202020226170692e75726c222c0a20202020202020202273657373696f6e223a202020202020226170692e73657373696f6e220a202020207d20293b0a0a0a202020202f2f205374617274206170706c69636174696f6e2066726f6d2063757272656e746c7920636c69636b6564202f20757365642055524c0a202020202866756e6374696f6e282077696e646f772029207b0a2020202020202020486973746f7279203d2077696e646f772e486973746f72793b0a0a20202020202020202f2f2042696e6420746f2053746174654368616e6765204576656e740a2020202020202020486973746f72792e416461707465722e62696e64282077696e646f772c202773746174656368616e6765272c2066756e6374696f6e202829207b0a202020202020202020202020766172205374617465203d20486973746f72792e676574537461746528293b0a202020202020202020202020726f757465722e726f7574652820706172736555524c28206c6f636174696f6e2e68726566202920293b0a20202020202020207d293b0a0a20202020202020206a5175657279282077696e646f7720292e7472696767657228202273746174656368616e67652220293b0a20202020202020206a5175657279282077696e646f7720292e74726967676572282022636f6e74656e744c6f61646564222c2022626f64792220293b0a0a202020207d282077696e646f77202920293b0a7d20293b0a"/>
    </proto>
  </packet>
  <packet>
    <proto name="geninfo" pos="0" showname="General information" size="66">
      <field name="num" pos="0" show="176" showname="Number" value="b0" size="66"/>
      <field name="len" pos="0" show="66" showname="Frame Length" value="42" size="66"/>
      <field name="caplen" pos="0" show="66" showname="Captured Length" value="42" size="66"/>
      <field name="timestamp" pos="0" show="Apr 20, 2012 09:11:11.275872000 CEST" showname="Captured Time" value="1334905871.275872000" size="66"/>
    </proto>
    <proto name="frame" showname="Frame 176: 66 bytes on wire (528 bits), 66 bytes captured (528 bits)" size="66" pos="0">
      <field name="frame.time" showname="Arrival Time: Apr 20, 2012 09:11:11.275872000 CEST" size="0" pos="0" show="Apr 20, 2012 09:11:11.275872000"/>
      <field name="frame.time_epoch" showname="Epoch Time: 1334905871.275872000 seconds" size="0" pos="0" show="1334905871.275872000"/>
      <field name="frame.time_delta" showname="Time delta from previous captured frame: 0.000005000 seconds" size="0" pos="0" show="0.000005000"/>
      <field name="frame.time_delta_displayed" showname="Time delta from previous displayed frame: 0.000005000 seconds" size="0" pos="0" show="0.000005000"/>
      <field name="frame.time_relative" showname="Time since reference or first frame: 3.821678000 seconds" size="0" pos="0" show="3.821678000"/>
      <field name="frame.number" showname="Frame Number: 176" size="0" pos="0" show="176"/>
      <field name="frame.len" showname="Frame Length: 66 bytes (528 bits)" size="0" pos="0" show="66"/>
      <field name="frame.cap_len" showname="Capture Length: 66 bytes (528 bits)" size="0" pos="0" show="66"/>
      <field name="frame.marked" showname="Frame is marked: False" size="0" pos="0" show="0"/>
      <field name="frame.ignored" showname="Frame is ignored: False" size="0" pos="0" show="0"/>
      <field name="frame.protocols" showname="Protocols in frame: eth:ip:tcp" size="0" pos="0" show="eth:ip:tcp"/>
    </proto>
    <proto name="eth" showname="Ethernet II, Src: 00:00:00_00:00:00 (00:00:00:00:00:00), Dst: 00:00:00_00:00:00 (00:00:00:00:00:00)" size="14" pos="0">
      <field name="eth.dst" showname="Destination: 00:00:00_00:00:00 (00:00:00:00:00:00)" size="6" pos="0" show="00:00:00:00:00:00" value="000000000000">
        <field name="eth.addr" showname="Address: 00:00:00_00:00:00 (00:00:00:00:00:00)" size="6" pos="0" show="00:00:00:00:00:00" value="000000000000"/>
        <field name="eth.ig" showname=".... ...0 .... .... .... .... = IG bit: Individual address (unicast)" size="3" pos="0" show="0" value="0" unmaskedvalue="000000"/>
        <field name="eth.lg" showname=".... ..0. .... .... .... .... = LG bit: Globally unique address (factory default)" size="3" pos="0" show="0" value="0" unmaskedvalue="000000"/>
      </field>
      <field name="eth.src" showname="Source: 00:00:00_00:00:00 (00:00:00:00:00:00)" size="6" pos="6" show="00:00:00:00:00:00" value="000000000000">
        <field name="eth.addr" showname="Address: 00:00:00_00:00:00 (00:00:00:00:00:00)" size="6" pos="6" show="00:00:00:00:00:00" value="000000000000"/>
        <field name="eth.ig" showname=".... ...0 .... .... .... .... = IG bit: Individual address (unicast)" size="3" pos="6" show="0" value="0" unmaskedvalue="000000"/>
        <field name="eth.lg" showname=".... ..0. .... .... .... .... = LG bit: Globally unique address (factory default)" size="3" pos="6" show="0" value="0" unmaskedvalue="000000"/>
      </field>
      <field name="eth.type" showname="Type: IP (0x0800)" size="2" pos="12" show="0x0800" value="0800"/>
    </proto>
    <proto name="ip" showname="Internet Protocol Version 4, Src: 127.0.0.1 (127.0.0.1), Dst: 127.0.0.1 (127.0.0.1)" size="20" pos="14">
      <field name="ip.version" showname="Version: 4" size="1" pos="14" show="4" value="45"/>
      <field name="ip.hdr_len" showname="Header length: 20 bytes" size="1" pos="14" show="20" value="45"/>
      <field name="ip.dsfield" showname="Differentiated Services Field: 0x00 (DSCP 0x00: Default; ECN: 0x00: Not-ECT (Not ECN-Capable Transport))" size="1" pos="15" show="0" value="00">
        <field name="ip.dsfield.dscp" showname="0000 00.. = Differentiated Services Codepoint: Default (0x00)" size="1" pos="15" show="0x00" value="0" unmaskedvalue="00"/>
        <field name="ip.dsfield.ecn" showname=".... ..00 = Explicit Congestion Notification: Not-ECT (Not ECN-Capable Transport) (0x00)" size="1" pos="15" show="0x00" value="0" unmaskedvalue="00"/>
      </field>
      <field name="ip.len" showname="Total Length: 52" size="2" pos="16" show="52" value="0034"/>
      <field name="ip.id" showname="Identification: 0x7f65 (32613)" size="2" pos="18" show="0x7f65" value="7f65"/>
      <field name="ip.flags" showname="Flags: 0x02 (Don't Fragment)" size="1" pos="20" show="0x02" value="40">
        <field name="ip.flags.rb" showname="0... .... = Reserved bit: Not set" size="1" pos="20" show="0" value="40"/>
        <field name="ip.flags.df" showname=".1.. .... = Don't fragment: Set" size="1" pos="20" show="1" value="40"/>
        <field name="ip.flags.mf" showname="..0. .... = More fragments: Not set" size="1" pos="20" show="0" value="40"/>
      </field>
      <field name="ip.frag_offset" showname="Fragment offset: 0" size="2" pos="20" show="0" value="4000"/>
      <field name="ip.ttl" showname="Time to live: 64" size="1" pos="22" show="64" value="40"/>
      <field name="ip.proto" showname="Protocol: TCP (6)" size="1" pos="23" show="6" value="06"/>
      <field name="ip.checksum" showname="Header checksum: 0xbd5c [correct]" size="2" pos="24" show="0xbd5c" value="bd5c">
        <field name="ip.checksum_good" showname="Good: True" size="2" pos="24" show="1" value="bd5c"/>
        <field name="ip.checksum_bad" showname="Bad: False" size="2" pos="24" show="0" value="bd5c"/>
      </field>
      <field name="ip.src" showname="Source: 127.0.0.1 (127.0.0.1)" size="4" pos="26" show="127.0.0.1" value="7f000001"/>
      <field name="ip.addr" showname="Source or Destination Address: 127.0.0.1 (127.0.0.1)" hide="yes" size="4" pos="26" show="127.0.0.1" value="7f000001"/>
      <field name="ip.src_host" showname="Source Host: 127.0.0.1" hide="yes" size="4" pos="26" show="127.0.0.1" value="7f000001"/>
      <field name="ip.host" showname="Source or Destination Host: 127.0.0.1" hide="yes" size="4" pos="26" show="127.0.0.1" value="7f000001"/>
      <field name="ip.dst" showname="Destination: 127.0.0.1 (127.0.0.1)" size="4" pos="30" show="127.0.0.1" value="7f000001"/>
      <field name="ip.addr" showname="Source or Destination Address: 127.0.0.1 (127.0.0.1)" hide="yes" size="4" pos="30" show="127.0.0.1" value="7f000001"/>
      <field name="ip.dst_host" showname="Destination Host: 127.0.0.1" hide="yes" size="4" pos="30" show="127.0.0.1" value="7f000001"/>
      <field name="ip.host" showname="Source or Destination Host: 127.0.0.1" hide="yes" size="4" pos="30" show="127.0.0.1" value="7f000001"/>
    </proto>
    <proto name="tcp" showname="Transmission Control Protocol, Src Port: 37097 (37097), Dst Port: http (80), Seq: 1951, Ack: 2275, Len: 0" size="32" pos="34">
      <field name="tcp.srcport" showname="Source port: 37097 (37097)" size="2" pos="34" show="37097" value="90e9"/>
      <field name="tcp.dstport" showname="Destination port: http (80)" size="2" pos="36" show="80" value="0050"/>
      <field name="tcp.port" showname="Source or Destination Port: 37097" hide="yes" size="2" pos="34" show="37097" value="90e9"/>
      <field name="tcp.port" showname="Source or Destination Port: 80" hide="yes" size="2" pos="36" show="80" value="0050"/>
      <field name="tcp.stream" showname="Stream index: 5" size="0" pos="34" show="5"/>
      <field name="tcp.len" showname="TCP Segment Len: 0" hide="yes" size="1" pos="46" show="0" value="80"/>
      <field name="tcp.seq" showname="Sequence number: 1951    (relative sequence number)" size="4" pos="38" show="1951" value="887163a1"/>
      <field name="tcp.ack" showname="Acknowledgement number: 2275    (relative ack number)" size="4" pos="42" show="2275" value="0e2c8bfc"/>
      <field name="tcp.hdr_len" showname="Header length: 32 bytes" size="1" pos="46" show="32" value="80"/>
      <field name="tcp.flags" showname="Flags: 0x10 (ACK)" size="2" pos="46" show="0x10" value="8010">
        <field name="tcp.flags.res" showname="000. .... .... = Reserved: Not set" size="1" pos="46" show="0" value="0" unmaskedvalue="80"/>
        <field name="tcp.flags.ns" showname="...0 .... .... = Nonce: Not set" size="1" pos="46" show="0" value="0" unmaskedvalue="80"/>
        <field name="tcp.flags.cwr" showname=".... 0... .... = Congestion Window Reduced (CWR): Not set" size="1" pos="47" show="0" value="0" unmaskedvalue="10"/>
        <field name="tcp.flags.ecn" showname=".... .0.. .... = ECN-Echo: Not set" size="1" pos="47" show="0" value="0" unmaskedvalue="10"/>
        <field name="tcp.flags.urg" showname=".... ..0. .... = Urgent: Not set" size="1" pos="47" show="0" value="0" unmaskedvalue="10"/>
        <field name="tcp.flags.ack" showname=".... ...1 .... = Acknowledgement: Set" size="1" pos="47" show="1" value="1" unmaskedvalue="10"/>
        <field name="tcp.flags.push" showname=".... .... 0... = Push: Not set" size="1" pos="47" show="0" value="0" unmaskedvalue="10"/>
        <field name="tcp.flags.reset" showname=".... .... .0.. = Reset: Not set" size="1" pos="47" show="0" value="0" unmaskedvalue="10"/>
        <field name="tcp.flags.syn" showname=".... .... ..0. = Syn: Not set" size="1" pos="47" show="0" value="0" unmaskedvalue="10"/>
        <field name="tcp.flags.fin" showname=".... .... ...0 = Fin: Not set" size="1" pos="47" show="0" value="0" unmaskedvalue="10"/>
      </field>
      <field name="tcp.window_size_value" showname="Window size value: 307" size="2" pos="48" show="307" value="0133"/>
      <field name="tcp.window_size" showname="Calculated window size: 39296" size="2" pos="48" show="39296" value="0133"/>
      <field name="tcp.window_size_scalefactor" showname="Window size scaling factor: 128" size="2" pos="48" show="128" value="0133"/>
      <field name="tcp.checksum" showname="Checksum: 0xfe28 [validation disabled]" size="2" pos="50" show="0xfe28" value="fe28">
        <field name="tcp.checksum_good" showname="Good Checksum: False" size="2" pos="50" show="0" value="fe28"/>
        <field name="tcp.checksum_bad" showname="Bad Checksum: False" size="2" pos="50" show="0" value="fe28"/>
      </field>
      <field name="tcp.options" showname="Options: (12 bytes)" size="12" pos="54" show="01:01:08:0a:00:14:27:19:00:14:27:19" value="0101080a0014271900142719">
        <field name="" show="No-Operation (NOP)" size="1" pos="54" value="01"/>
        <field name="" show="No-Operation (NOP)" size="1" pos="55" value="01"/>
        <field name="" show="Timestamps: TSval 1320729, TSecr 1320729" size="10" pos="56" value="080a0014271900142719">
          <field name="tcp.option_kind" showname="Kind: Timestamp (8)" size="1" pos="56" show="8" value="08"/>
          <field name="tcp.option_len" showname="Length: 10" size="1" pos="57" show="10" value="0a"/>
          <field name="tcp.options.timestamp.tsval" showname="Timestamp value: 1320729" size="4" pos="58" show="1320729" value="00142719"/>
          <field name="tcp.options.timestamp.tsecr" showname="Timestamp echo reply: 1320729" size="4" pos="62" show="1320729" value="00142719"/>
        </field>
      </field>
      <field name="" show="SEQ/ACK analysis" size="0" pos="34" value="">
        <field name="tcp.analysis.acks_frame" showname="This is an ACK to the segment in frame: 175" size="0" pos="34" show="175"/>
        <field name="tcp.analysis.ack_rtt" showname="The RTT to ACK the segment was: 0.000005000 seconds" size="0" pos="34" show="0.000005000"/>
      </field>
    </proto>
  </packet>
</pdml>
